
Digital_PSU.elf:     file format elf32-avr

Sections:
Idx Name          Size      VMA       LMA       File off  Algn
  0 .data         00000334  00800100  00003600  00003694  2**0
                  CONTENTS, ALLOC, LOAD, DATA
  1 .text         00003600  00000000  00000000  00000094  2**1
                  CONTENTS, ALLOC, LOAD, READONLY, CODE
  2 .bss          0000010b  00800434  00800434  000039c8  2**0
                  ALLOC
  3 .comment      00000030  00000000  00000000  000039c8  2**0
                  CONTENTS, READONLY
  4 .note.gnu.avr.deviceinfo 00000040  00000000  00000000  000039f8  2**2
                  CONTENTS, READONLY
  5 .debug_info   000005f4  00000000  00000000  00003a38  2**0
                  CONTENTS, READONLY, DEBUGGING
  6 .debug_abbrev 000005a2  00000000  00000000  0000402c  2**0
                  CONTENTS, READONLY, DEBUGGING
  7 .debug_line   00000133  00000000  00000000  000045ce  2**0
                  CONTENTS, READONLY, DEBUGGING
  8 .debug_str    00000208  00000000  00000000  00004701  2**0
                  CONTENTS, READONLY, DEBUGGING

Disassembly of section .text:

00000000 <__vectors>:
       0:	0c 94 3d 03 	jmp	0x67a	; 0x67a <__ctors_end>
       4:	0c 94 5a 0b 	jmp	0x16b4	; 0x16b4 <__vector_1>
       8:	0c 94 65 03 	jmp	0x6ca	; 0x6ca <__bad_interrupt>
       c:	0c 94 3f 0e 	jmp	0x1c7e	; 0x1c7e <__vector_3>
      10:	0c 94 6c 0e 	jmp	0x1cd8	; 0x1cd8 <__vector_4>
      14:	0c 94 99 0e 	jmp	0x1d32	; 0x1d32 <__vector_5>
      18:	0c 94 65 03 	jmp	0x6ca	; 0x6ca <__bad_interrupt>
      1c:	0c 94 65 03 	jmp	0x6ca	; 0x6ca <__bad_interrupt>
      20:	0c 94 65 03 	jmp	0x6ca	; 0x6ca <__bad_interrupt>
      24:	0c 94 65 03 	jmp	0x6ca	; 0x6ca <__bad_interrupt>
      28:	0c 94 65 03 	jmp	0x6ca	; 0x6ca <__bad_interrupt>
      2c:	0c 94 65 03 	jmp	0x6ca	; 0x6ca <__bad_interrupt>
      30:	0c 94 65 03 	jmp	0x6ca	; 0x6ca <__bad_interrupt>
      34:	0c 94 65 03 	jmp	0x6ca	; 0x6ca <__bad_interrupt>
      38:	0c 94 65 03 	jmp	0x6ca	; 0x6ca <__bad_interrupt>
      3c:	0c 94 65 03 	jmp	0x6ca	; 0x6ca <__bad_interrupt>
      40:	0c 94 ea 15 	jmp	0x2bd4	; 0x2bd4 <__vector_16>
      44:	0c 94 65 03 	jmp	0x6ca	; 0x6ca <__bad_interrupt>
      48:	0c 94 5a 10 	jmp	0x20b4	; 0x20b4 <__vector_18>
      4c:	0c 94 f9 10 	jmp	0x21f2	; 0x21f2 <__vector_19>
      50:	0c 94 65 03 	jmp	0x6ca	; 0x6ca <__bad_interrupt>
      54:	0c 94 65 03 	jmp	0x6ca	; 0x6ca <__bad_interrupt>
      58:	0c 94 65 03 	jmp	0x6ca	; 0x6ca <__bad_interrupt>
      5c:	0c 94 65 03 	jmp	0x6ca	; 0x6ca <__bad_interrupt>
      60:	0c 94 65 03 	jmp	0x6ca	; 0x6ca <__bad_interrupt>
      64:	0c 94 65 03 	jmp	0x6ca	; 0x6ca <__bad_interrupt>

00000068 <__trampolines_end>:
      68:	00 00       	nop
      6a:	00 00       	nop
      6c:	00 3e       	cpi	r16, 0xE0	; 224
      6e:	5b 4f       	sbci	r21, 0xFB	; 251
      70:	5b 3e       	cpi	r21, 0xEB	; 235
      72:	3e 6b       	ori	r19, 0xBE	; 190
      74:	4f 6b       	ori	r20, 0xBF	; 191
      76:	3e 1c       	adc	r3, r14
      78:	3e 7c       	andi	r19, 0xCE	; 206
      7a:	3e 1c       	adc	r3, r14
      7c:	18 3c       	cpi	r17, 0xC8	; 200
      7e:	7e 3c       	cpi	r23, 0xCE	; 206
      80:	18 1c       	adc	r1, r8
      82:	57 7d       	andi	r21, 0xD7	; 215
      84:	57 1c       	adc	r5, r7
      86:	1c 5e       	subi	r17, 0xEC	; 236
      88:	7f 5e       	subi	r23, 0xEF	; 239
      8a:	1c 00       	.word	0x001c	; ????
      8c:	18 3c       	cpi	r17, 0xC8	; 200
      8e:	18 00       	.word	0x0018	; ????
      90:	ff e7       	ldi	r31, 0x7F	; 127
      92:	c3 e7       	ldi	r28, 0x73	; 115
      94:	ff 00       	.word	0x00ff	; ????
      96:	18 24       	eor	r1, r8
      98:	18 00       	.word	0x0018	; ????
      9a:	ff e7       	ldi	r31, 0x7F	; 127
      9c:	db e7       	ldi	r29, 0x7B	; 123
      9e:	ff 30       	cpi	r31, 0x0F	; 15
      a0:	48 3a       	cpi	r20, 0xA8	; 168
      a2:	06 0e       	add	r0, r22
      a4:	26 29       	or	r18, r6
      a6:	79 29       	or	r23, r9
      a8:	26 40       	sbci	r18, 0x06	; 6
      aa:	7f 05       	cpc	r23, r15
      ac:	05 07       	cpc	r16, r21
      ae:	40 7f       	andi	r20, 0xF0	; 240
      b0:	05 25       	eor	r16, r5
      b2:	3f 5a       	subi	r19, 0xAF	; 175
      b4:	3c e7       	ldi	r19, 0x7C	; 124
      b6:	3c 5a       	subi	r19, 0xAC	; 172
      b8:	7f 3e       	cpi	r23, 0xEF	; 239
      ba:	1c 1c       	adc	r1, r12
      bc:	08 08       	sbc	r0, r8
      be:	1c 1c       	adc	r1, r12
      c0:	3e 7f       	andi	r19, 0xFE	; 254
      c2:	14 22       	and	r1, r20
      c4:	7f 22       	and	r7, r31
      c6:	14 5f       	subi	r17, 0xF4	; 244
      c8:	5f 00       	.word	0x005f	; ????
      ca:	5f 5f       	subi	r21, 0xFF	; 255
      cc:	06 09       	sbc	r16, r6
      ce:	7f 01       	movw	r14, r30
      d0:	7f 00       	.word	0x007f	; ????
      d2:	66 89       	ldd	r22, Z+22	; 0x16
      d4:	95 6a       	ori	r25, 0xA5	; 165
      d6:	60 60       	ori	r22, 0x00	; 0
      d8:	60 60       	ori	r22, 0x00	; 0
      da:	60 94       	com	r6
      dc:	a2 ff       	sbrs	r26, 2
      de:	a2 94       	swap	r10
      e0:	08 04       	cpc	r0, r8
      e2:	7e 04       	cpc	r7, r14
      e4:	08 10       	cpse	r0, r8
      e6:	20 7e       	andi	r18, 0xE0	; 224
      e8:	20 10       	cpse	r2, r0
      ea:	08 08       	sbc	r0, r8
      ec:	2a 1c       	adc	r2, r10
      ee:	08 08       	sbc	r0, r8
      f0:	1c 2a       	or	r1, r28
      f2:	08 08       	sbc	r0, r8
      f4:	1e 10       	cpse	r1, r14
      f6:	10 10       	cpse	r1, r0
      f8:	10 0c       	add	r1, r0
      fa:	1e 0c       	add	r1, r14
      fc:	1e 0c       	add	r1, r14
      fe:	30 38       	cpi	r19, 0x80	; 128
     100:	3e 38       	cpi	r19, 0x8E	; 142
     102:	30 06       	cpc	r3, r16
     104:	0e 3e       	cpi	r16, 0xEE	; 238
     106:	0e 06       	cpc	r0, r30
     108:	00 00       	nop
     10a:	00 00       	nop
     10c:	00 00       	nop
     10e:	00 5f       	subi	r16, 0xF0	; 240
     110:	00 00       	nop
     112:	00 07       	cpc	r16, r16
     114:	00 07       	cpc	r16, r16
     116:	00 14       	cp	r0, r0
     118:	7f 14       	cp	r7, r15
     11a:	7f 14       	cp	r7, r15
     11c:	24 2a       	or	r2, r20
     11e:	7f 2a       	or	r7, r31
     120:	12 23       	and	r17, r18
     122:	13 08       	sbc	r1, r3
     124:	64 62       	ori	r22, 0x24	; 36
     126:	36 49       	sbci	r19, 0x96	; 150
     128:	56 20       	and	r5, r6
     12a:	50 00       	.word	0x0050	; ????
     12c:	08 07       	cpc	r16, r24
     12e:	03 00       	.word	0x0003	; ????
     130:	00 1c       	adc	r0, r0
     132:	22 41       	sbci	r18, 0x12	; 18
     134:	00 00       	nop
     136:	41 22       	and	r4, r17
     138:	1c 00       	.word	0x001c	; ????
     13a:	2a 1c       	adc	r2, r10
     13c:	7f 1c       	adc	r7, r15
     13e:	2a 08       	sbc	r2, r10
     140:	08 3e       	cpi	r16, 0xE8	; 232
     142:	08 08       	sbc	r0, r8
     144:	00 80       	ld	r0, Z
     146:	70 30       	cpi	r23, 0x00	; 0
     148:	00 08       	sbc	r0, r0
     14a:	08 08       	sbc	r0, r8
     14c:	08 08       	sbc	r0, r8
     14e:	00 00       	nop
     150:	60 60       	ori	r22, 0x00	; 0
     152:	00 20       	and	r0, r0
     154:	10 08       	sbc	r1, r0
     156:	04 02       	muls	r16, r20
     158:	3e 51       	subi	r19, 0x1E	; 30
     15a:	49 45       	sbci	r20, 0x59	; 89
     15c:	3e 00       	.word	0x003e	; ????
     15e:	42 7f       	andi	r20, 0xF2	; 242
     160:	40 00       	.word	0x0040	; ????
     162:	72 49       	sbci	r23, 0x92	; 146
     164:	49 49       	sbci	r20, 0x99	; 153
     166:	46 21       	and	r20, r6
     168:	41 49       	sbci	r20, 0x91	; 145
     16a:	4d 33       	cpi	r20, 0x3D	; 61
     16c:	18 14       	cp	r1, r8
     16e:	12 7f       	andi	r17, 0xF2	; 242
     170:	10 27       	eor	r17, r16
     172:	45 45       	sbci	r20, 0x55	; 85
     174:	45 39       	cpi	r20, 0x95	; 149
     176:	3c 4a       	sbci	r19, 0xAC	; 172
     178:	49 49       	sbci	r20, 0x99	; 153
     17a:	31 41       	sbci	r19, 0x11	; 17
     17c:	21 11       	cpse	r18, r1
     17e:	09 07       	cpc	r16, r25
     180:	36 49       	sbci	r19, 0x96	; 150
     182:	49 49       	sbci	r20, 0x99	; 153
     184:	36 46       	sbci	r19, 0x66	; 102
     186:	49 49       	sbci	r20, 0x99	; 153
     188:	29 1e       	adc	r2, r25
     18a:	00 00       	nop
     18c:	14 00       	.word	0x0014	; ????
     18e:	00 00       	nop
     190:	40 34       	cpi	r20, 0x40	; 64
     192:	00 00       	nop
     194:	00 08       	sbc	r0, r0
     196:	14 22       	and	r1, r20
     198:	41 14       	cp	r4, r1
     19a:	14 14       	cp	r1, r4
     19c:	14 14       	cp	r1, r4
     19e:	00 41       	sbci	r16, 0x10	; 16
     1a0:	22 14       	cp	r2, r2
     1a2:	08 02       	muls	r16, r24
     1a4:	01 59       	subi	r16, 0x91	; 145
     1a6:	09 06       	cpc	r0, r25
     1a8:	3e 41       	sbci	r19, 0x1E	; 30
     1aa:	5d 59       	subi	r21, 0x9D	; 157
     1ac:	4e 7c       	andi	r20, 0xCE	; 206
     1ae:	12 11       	cpse	r17, r2
     1b0:	12 7c       	andi	r17, 0xC2	; 194
     1b2:	7f 49       	sbci	r23, 0x9F	; 159
     1b4:	49 49       	sbci	r20, 0x99	; 153
     1b6:	36 3e       	cpi	r19, 0xE6	; 230
     1b8:	41 41       	sbci	r20, 0x11	; 17
     1ba:	41 22       	and	r4, r17
     1bc:	7f 41       	sbci	r23, 0x1F	; 31
     1be:	41 41       	sbci	r20, 0x11	; 17
     1c0:	3e 7f       	andi	r19, 0xFE	; 254
     1c2:	49 49       	sbci	r20, 0x99	; 153
     1c4:	49 41       	sbci	r20, 0x19	; 25
     1c6:	7f 09       	sbc	r23, r15
     1c8:	09 09       	sbc	r16, r9
     1ca:	01 3e       	cpi	r16, 0xE1	; 225
     1cc:	41 41       	sbci	r20, 0x11	; 17
     1ce:	51 73       	andi	r21, 0x31	; 49
     1d0:	7f 08       	sbc	r7, r15
     1d2:	08 08       	sbc	r0, r8
     1d4:	7f 00       	.word	0x007f	; ????
     1d6:	41 7f       	andi	r20, 0xF1	; 241
     1d8:	41 00       	.word	0x0041	; ????
     1da:	20 40       	sbci	r18, 0x00	; 0
     1dc:	41 3f       	cpi	r20, 0xF1	; 241
     1de:	01 7f       	andi	r16, 0xF1	; 241
     1e0:	08 14       	cp	r0, r8
     1e2:	22 41       	sbci	r18, 0x12	; 18
     1e4:	7f 40       	sbci	r23, 0x0F	; 15
     1e6:	40 40       	sbci	r20, 0x00	; 0
     1e8:	40 7f       	andi	r20, 0xF0	; 240
     1ea:	02 1c       	adc	r0, r2
     1ec:	02 7f       	andi	r16, 0xF2	; 242
     1ee:	7f 04       	cpc	r7, r15
     1f0:	08 10       	cpse	r0, r8
     1f2:	7f 3e       	cpi	r23, 0xEF	; 239
     1f4:	41 41       	sbci	r20, 0x11	; 17
     1f6:	41 3e       	cpi	r20, 0xE1	; 225
     1f8:	7f 09       	sbc	r23, r15
     1fa:	09 09       	sbc	r16, r9
     1fc:	06 3e       	cpi	r16, 0xE6	; 230
     1fe:	41 51       	subi	r20, 0x11	; 17
     200:	21 5e       	subi	r18, 0xE1	; 225
     202:	7f 09       	sbc	r23, r15
     204:	19 29       	or	r17, r9
     206:	46 26       	eor	r4, r22
     208:	49 49       	sbci	r20, 0x99	; 153
     20a:	49 32       	cpi	r20, 0x29	; 41
     20c:	03 01       	movw	r0, r6
     20e:	7f 01       	movw	r14, r30
     210:	03 3f       	cpi	r16, 0xF3	; 243
     212:	40 40       	sbci	r20, 0x00	; 0
     214:	40 3f       	cpi	r20, 0xF0	; 240
     216:	1f 20       	and	r1, r15
     218:	40 20       	and	r4, r0
     21a:	1f 3f       	cpi	r17, 0xFF	; 255
     21c:	40 38       	cpi	r20, 0x80	; 128
     21e:	40 3f       	cpi	r20, 0xF0	; 240
     220:	63 14       	cp	r6, r3
     222:	08 14       	cp	r0, r8
     224:	63 03       	mulsu	r22, r19
     226:	04 78       	andi	r16, 0x84	; 132
     228:	04 03       	mulsu	r16, r20
     22a:	61 59       	subi	r22, 0x91	; 145
     22c:	49 4d       	sbci	r20, 0xD9	; 217
     22e:	43 00       	.word	0x0043	; ????
     230:	7f 41       	sbci	r23, 0x1F	; 31
     232:	41 41       	sbci	r20, 0x11	; 17
     234:	02 04       	cpc	r0, r2
     236:	08 10       	cpse	r0, r8
     238:	20 00       	.word	0x0020	; ????
     23a:	41 41       	sbci	r20, 0x11	; 17
     23c:	41 7f       	andi	r20, 0xF1	; 241
     23e:	04 02       	muls	r16, r20
     240:	01 02       	muls	r16, r17
     242:	04 40       	sbci	r16, 0x04	; 4
     244:	40 40       	sbci	r20, 0x00	; 0
     246:	40 40       	sbci	r20, 0x00	; 0
     248:	00 03       	mulsu	r16, r16
     24a:	07 08       	sbc	r0, r7
     24c:	00 20       	and	r0, r0
     24e:	54 54       	subi	r21, 0x44	; 68
     250:	78 40       	sbci	r23, 0x08	; 8
     252:	7f 28       	or	r7, r15
     254:	44 44       	sbci	r20, 0x44	; 68
     256:	38 38       	cpi	r19, 0x88	; 136
     258:	44 44       	sbci	r20, 0x44	; 68
     25a:	44 28       	or	r4, r4
     25c:	38 44       	sbci	r19, 0x48	; 72
     25e:	44 28       	or	r4, r4
     260:	7f 38       	cpi	r23, 0x8F	; 143
     262:	54 54       	subi	r21, 0x44	; 68
     264:	54 18       	sub	r5, r4
     266:	00 08       	sbc	r0, r0
     268:	7e 09       	sbc	r23, r14
     26a:	02 18       	sub	r0, r2
     26c:	a4 a4       	ldd	r10, Z+44	; 0x2c
     26e:	9c 78       	andi	r25, 0x8C	; 140
     270:	7f 08       	sbc	r7, r15
     272:	04 04       	cpc	r0, r4
     274:	78 00       	.word	0x0078	; ????
     276:	44 7d       	andi	r20, 0xD4	; 212
     278:	40 00       	.word	0x0040	; ????
     27a:	20 40       	sbci	r18, 0x00	; 0
     27c:	40 3d       	cpi	r20, 0xD0	; 208
     27e:	00 7f       	andi	r16, 0xF0	; 240
     280:	10 28       	or	r1, r0
     282:	44 00       	.word	0x0044	; ????
     284:	00 41       	sbci	r16, 0x10	; 16
     286:	7f 40       	sbci	r23, 0x0F	; 15
     288:	00 7c       	andi	r16, 0xC0	; 192
     28a:	04 78       	andi	r16, 0x84	; 132
     28c:	04 78       	andi	r16, 0x84	; 132
     28e:	7c 08       	sbc	r7, r12
     290:	04 04       	cpc	r0, r4
     292:	78 38       	cpi	r23, 0x88	; 136
     294:	44 44       	sbci	r20, 0x44	; 68
     296:	44 38       	cpi	r20, 0x84	; 132
     298:	fc 18       	sub	r15, r12
     29a:	24 24       	eor	r2, r4
     29c:	18 18       	sub	r1, r8
     29e:	24 24       	eor	r2, r4
     2a0:	18 fc       	.word	0xfc18	; ????
     2a2:	7c 08       	sbc	r7, r12
     2a4:	04 04       	cpc	r0, r4
     2a6:	08 48       	sbci	r16, 0x88	; 136
     2a8:	54 54       	subi	r21, 0x44	; 68
     2aa:	54 24       	eor	r5, r4
     2ac:	04 04       	cpc	r0, r4
     2ae:	3f 44       	sbci	r19, 0x4F	; 79
     2b0:	24 3c       	cpi	r18, 0xC4	; 196
     2b2:	40 40       	sbci	r20, 0x00	; 0
     2b4:	20 7c       	andi	r18, 0xC0	; 192
     2b6:	1c 20       	and	r1, r12
     2b8:	40 20       	and	r4, r0
     2ba:	1c 3c       	cpi	r17, 0xCC	; 204
     2bc:	40 30       	cpi	r20, 0x00	; 0
     2be:	40 3c       	cpi	r20, 0xC0	; 192
     2c0:	44 28       	or	r4, r4
     2c2:	10 28       	or	r1, r0
     2c4:	44 4c       	sbci	r20, 0xC4	; 196
     2c6:	90 90 90 7c 	lds	r9, 0x7C90	; 0x807c90 <__bss_end+0x7751>
     2ca:	44 64       	ori	r20, 0x44	; 68
     2cc:	54 4c       	sbci	r21, 0xC4	; 196
     2ce:	44 00       	.word	0x0044	; ????
     2d0:	08 36       	cpi	r16, 0x68	; 104
     2d2:	41 00       	.word	0x0041	; ????
     2d4:	00 00       	nop
     2d6:	77 00       	.word	0x0077	; ????
     2d8:	00 00       	nop
     2da:	41 36       	cpi	r20, 0x61	; 97
     2dc:	08 00       	.word	0x0008	; ????
     2de:	02 01       	movw	r0, r4
     2e0:	02 04       	cpc	r0, r2
     2e2:	02 3c       	cpi	r16, 0xC2	; 194
     2e4:	26 23       	and	r18, r22
     2e6:	26 3c       	cpi	r18, 0xC6	; 198
     2e8:	1e a1       	ldd	r17, Y+38	; 0x26
     2ea:	a1 61       	ori	r26, 0x11	; 17
     2ec:	12 3a       	cpi	r17, 0xA2	; 162
     2ee:	40 40       	sbci	r20, 0x00	; 0
     2f0:	20 7a       	andi	r18, 0xA0	; 160
     2f2:	38 54       	subi	r19, 0x48	; 72
     2f4:	54 55       	subi	r21, 0x54	; 84
     2f6:	59 21       	and	r21, r9
     2f8:	55 55       	subi	r21, 0x55	; 85
     2fa:	79 41       	sbci	r23, 0x19	; 25
     2fc:	22 54       	subi	r18, 0x42	; 66
     2fe:	54 78       	andi	r21, 0x84	; 132
     300:	42 21       	and	r20, r2
     302:	55 54       	subi	r21, 0x45	; 69
     304:	78 40       	sbci	r23, 0x08	; 8
     306:	20 54       	subi	r18, 0x40	; 64
     308:	55 79       	andi	r21, 0x95	; 149
     30a:	40 0c       	add	r4, r0
     30c:	1e 52       	subi	r17, 0x2E	; 46
     30e:	72 12       	cpse	r7, r18
     310:	39 55       	subi	r19, 0x59	; 89
     312:	55 55       	subi	r21, 0x55	; 85
     314:	59 39       	cpi	r21, 0x99	; 153
     316:	54 54       	subi	r21, 0x44	; 68
     318:	54 59       	subi	r21, 0x94	; 148
     31a:	39 55       	subi	r19, 0x59	; 89
     31c:	54 54       	subi	r21, 0x44	; 68
     31e:	58 00       	.word	0x0058	; ????
     320:	00 45       	sbci	r16, 0x50	; 80
     322:	7c 41       	sbci	r23, 0x1C	; 28
     324:	00 02       	muls	r16, r16
     326:	45 7d       	andi	r20, 0xD5	; 213
     328:	42 00       	.word	0x0042	; ????
     32a:	01 45       	sbci	r16, 0x51	; 81
     32c:	7c 40       	sbci	r23, 0x0C	; 12
     32e:	7d 12       	cpse	r7, r29
     330:	11 12       	cpse	r1, r17
     332:	7d f0       	brhs	.+30     	; 0x352 <__trampolines_end+0x2ea>
     334:	28 25       	eor	r18, r8
     336:	28 f0       	brcs	.+10     	; 0x342 <__trampolines_end+0x2da>
     338:	7c 54       	subi	r23, 0x4C	; 76
     33a:	55 45       	sbci	r21, 0x55	; 85
     33c:	00 20       	and	r0, r0
     33e:	54 54       	subi	r21, 0x44	; 68
     340:	7c 54       	subi	r23, 0x4C	; 76
     342:	7c 0a       	sbc	r7, r28
     344:	09 7f       	andi	r16, 0xF9	; 249
     346:	49 32       	cpi	r20, 0x29	; 41
     348:	49 49       	sbci	r20, 0x99	; 153
     34a:	49 32       	cpi	r20, 0x29	; 41
     34c:	3a 44       	sbci	r19, 0x4A	; 74
     34e:	44 44       	sbci	r20, 0x44	; 68
     350:	3a 32       	cpi	r19, 0x2A	; 42
     352:	4a 48       	sbci	r20, 0x8A	; 138
     354:	48 30       	cpi	r20, 0x08	; 8
     356:	3a 41       	sbci	r19, 0x1A	; 26
     358:	41 21       	and	r20, r1
     35a:	7a 3a       	cpi	r23, 0xAA	; 170
     35c:	42 40       	sbci	r20, 0x02	; 2
     35e:	20 78       	andi	r18, 0x80	; 128
     360:	00 9d       	mul	r16, r0
     362:	a0 a0       	ldd	r10, Z+32	; 0x20
     364:	7d 3d       	cpi	r23, 0xDD	; 221
     366:	42 42       	sbci	r20, 0x22	; 34
     368:	42 3d       	cpi	r20, 0xD2	; 210
     36a:	3d 40       	sbci	r19, 0x0D	; 13
     36c:	40 40       	sbci	r20, 0x00	; 0
     36e:	3d 3c       	cpi	r19, 0xCD	; 205
     370:	24 ff       	sbrs	r18, 4
     372:	24 24       	eor	r2, r4
     374:	48 7e       	andi	r20, 0xE8	; 232
     376:	49 43       	sbci	r20, 0x39	; 57
     378:	66 2b       	or	r22, r22
     37a:	2f fc       	.word	0xfc2f	; ????
     37c:	2f 2b       	or	r18, r31
     37e:	ff 09       	sbc	r31, r15
     380:	29 f6       	brne	.-118    	; 0x30c <__trampolines_end+0x2a4>
     382:	20 c0       	rjmp	.+64     	; 0x3c4 <__trampolines_end+0x35c>
     384:	88 7e       	andi	r24, 0xE8	; 232
     386:	09 03       	fmul	r16, r17
     388:	20 54       	subi	r18, 0x40	; 64
     38a:	54 79       	andi	r21, 0x94	; 148
     38c:	41 00       	.word	0x0041	; ????
     38e:	00 44       	sbci	r16, 0x40	; 64
     390:	7d 41       	sbci	r23, 0x1D	; 29
     392:	30 48       	sbci	r19, 0x80	; 128
     394:	48 4a       	sbci	r20, 0xA8	; 168
     396:	32 38       	cpi	r19, 0x82	; 130
     398:	40 40       	sbci	r20, 0x00	; 0
     39a:	22 7a       	andi	r18, 0xA2	; 162
     39c:	00 7a       	andi	r16, 0xA0	; 160
     39e:	0a 0a       	sbc	r0, r26
     3a0:	72 7d       	andi	r23, 0xD2	; 210
     3a2:	0d 19       	sub	r16, r13
     3a4:	31 7d       	andi	r19, 0xD1	; 209
     3a6:	26 29       	or	r18, r6
     3a8:	29 2f       	mov	r18, r25
     3aa:	28 26       	eor	r2, r24
     3ac:	29 29       	or	r18, r9
     3ae:	29 26       	eor	r2, r25
     3b0:	30 48       	sbci	r19, 0x80	; 128
     3b2:	4d 40       	sbci	r20, 0x0D	; 13
     3b4:	20 38       	cpi	r18, 0x80	; 128
     3b6:	08 08       	sbc	r0, r8
     3b8:	08 08       	sbc	r0, r8
     3ba:	08 08       	sbc	r0, r8
     3bc:	08 08       	sbc	r0, r8
     3be:	38 2f       	mov	r19, r24
     3c0:	10 c8       	rjmp	.-4064   	; 0xfffff3e2 <__eeprom_end+0xff7ef3e2>
     3c2:	ac ba       	out	0x1c, r10	; 28
     3c4:	2f 10       	cpse	r2, r15
     3c6:	28 34       	cpi	r18, 0x48	; 72
     3c8:	fa 00       	.word	0x00fa	; ????
     3ca:	00 7b       	andi	r16, 0xB0	; 176
     3cc:	00 00       	nop
     3ce:	08 14       	cp	r0, r8
     3d0:	2a 14       	cp	r2, r10
     3d2:	22 22       	and	r2, r18
     3d4:	14 2a       	or	r1, r20
     3d6:	14 08       	sbc	r1, r4
     3d8:	aa 00       	.word	0x00aa	; ????
     3da:	55 00       	.word	0x0055	; ????
     3dc:	aa aa       	std	Y+50, r10	; 0x32
     3de:	55 aa       	std	Z+53, r5	; 0x35
     3e0:	55 aa       	std	Z+53, r5	; 0x35
     3e2:	00 00       	nop
     3e4:	00 ff       	sbrs	r16, 0
     3e6:	00 10       	cpse	r0, r0
     3e8:	10 10       	cpse	r1, r0
     3ea:	ff 00       	.word	0x00ff	; ????
     3ec:	14 14       	cp	r1, r4
     3ee:	14 ff       	sbrs	r17, 4
     3f0:	00 10       	cpse	r0, r0
     3f2:	10 ff       	sbrs	r17, 0
     3f4:	00 ff       	sbrs	r16, 0
     3f6:	10 10       	cpse	r1, r0
     3f8:	f0 10       	cpse	r15, r0
     3fa:	f0 14       	cp	r15, r0
     3fc:	14 14       	cp	r1, r4
     3fe:	fc 00       	.word	0x00fc	; ????
     400:	14 14       	cp	r1, r4
     402:	f7 00       	.word	0x00f7	; ????
     404:	ff 00       	.word	0x00ff	; ????
     406:	00 ff       	sbrs	r16, 0
     408:	00 ff       	sbrs	r16, 0
     40a:	14 14       	cp	r1, r4
     40c:	f4 04       	cpc	r15, r4
     40e:	fc 14       	cp	r15, r12
     410:	14 17       	cp	r17, r20
     412:	10 1f       	adc	r17, r16
     414:	10 10       	cpse	r1, r0
     416:	1f 10       	cpse	r1, r15
     418:	1f 14       	cp	r1, r15
     41a:	14 14       	cp	r1, r4
     41c:	1f 00       	.word	0x001f	; ????
     41e:	10 10       	cpse	r1, r0
     420:	10 f0       	brcs	.+4      	; 0x426 <__LOCK_REGION_LENGTH__+0x26>
     422:	00 00       	nop
     424:	00 00       	nop
     426:	1f 10       	cpse	r1, r15
     428:	10 10       	cpse	r1, r0
     42a:	10 1f       	adc	r17, r16
     42c:	10 10       	cpse	r1, r0
     42e:	10 10       	cpse	r1, r0
     430:	f0 10       	cpse	r15, r0
     432:	00 00       	nop
     434:	00 ff       	sbrs	r16, 0
     436:	10 10       	cpse	r1, r0
     438:	10 10       	cpse	r1, r0
     43a:	10 10       	cpse	r1, r0
     43c:	10 10       	cpse	r1, r0
     43e:	10 ff       	sbrs	r17, 0
     440:	10 00       	.word	0x0010	; ????
     442:	00 00       	nop
     444:	ff 14       	cp	r15, r15
     446:	00 00       	nop
     448:	ff 00       	.word	0x00ff	; ????
     44a:	ff 00       	.word	0x00ff	; ????
     44c:	00 1f       	adc	r16, r16
     44e:	10 17       	cp	r17, r16
     450:	00 00       	nop
     452:	fc 04       	cpc	r15, r12
     454:	f4 14       	cp	r15, r4
     456:	14 17       	cp	r17, r20
     458:	10 17       	cp	r17, r16
     45a:	14 14       	cp	r1, r4
     45c:	f4 04       	cpc	r15, r4
     45e:	f4 00       	.word	0x00f4	; ????
     460:	00 ff       	sbrs	r16, 0
     462:	00 f7       	brcc	.-64     	; 0x424 <__LOCK_REGION_LENGTH__+0x24>
     464:	14 14       	cp	r1, r4
     466:	14 14       	cp	r1, r4
     468:	14 14       	cp	r1, r4
     46a:	14 f7       	brge	.-60     	; 0x430 <__LOCK_REGION_LENGTH__+0x30>
     46c:	00 f7       	brcc	.-64     	; 0x42e <__LOCK_REGION_LENGTH__+0x2e>
     46e:	14 14       	cp	r1, r4
     470:	14 17       	cp	r17, r20
     472:	14 10       	cpse	r1, r4
     474:	10 1f       	adc	r17, r16
     476:	10 1f       	adc	r17, r16
     478:	14 14       	cp	r1, r4
     47a:	14 f4       	brge	.+4      	; 0x480 <__LOCK_REGION_LENGTH__+0x80>
     47c:	14 10       	cpse	r1, r4
     47e:	10 f0       	brcs	.+4      	; 0x484 <__LOCK_REGION_LENGTH__+0x84>
     480:	10 f0       	brcs	.+4      	; 0x486 <__LOCK_REGION_LENGTH__+0x86>
     482:	00 00       	nop
     484:	1f 10       	cpse	r1, r15
     486:	1f 00       	.word	0x001f	; ????
     488:	00 00       	nop
     48a:	1f 14       	cp	r1, r15
     48c:	00 00       	nop
     48e:	00 fc       	sbrc	r0, 0
     490:	14 00       	.word	0x0014	; ????
     492:	00 f0       	brcs	.+0      	; 0x494 <__LOCK_REGION_LENGTH__+0x94>
     494:	10 f0       	brcs	.+4      	; 0x49a <__LOCK_REGION_LENGTH__+0x9a>
     496:	10 10       	cpse	r1, r0
     498:	ff 10       	cpse	r15, r15
     49a:	ff 14       	cp	r15, r15
     49c:	14 14       	cp	r1, r4
     49e:	ff 14       	cp	r15, r15
     4a0:	10 10       	cpse	r1, r0
     4a2:	10 1f       	adc	r17, r16
     4a4:	00 00       	nop
     4a6:	00 00       	nop
     4a8:	f0 10       	cpse	r15, r0
     4aa:	ff ff       	.word	0xffff	; ????
     4ac:	ff ff       	.word	0xffff	; ????
     4ae:	ff f0       	brie	.+62     	; 0x4ee <__LOCK_REGION_LENGTH__+0xee>
     4b0:	f0 f0       	brcs	.+60     	; 0x4ee <__LOCK_REGION_LENGTH__+0xee>
     4b2:	f0 f0       	brcs	.+60     	; 0x4f0 <__LOCK_REGION_LENGTH__+0xf0>
     4b4:	ff ff       	.word	0xffff	; ????
     4b6:	ff 00       	.word	0x00ff	; ????
     4b8:	00 00       	nop
     4ba:	00 00       	nop
     4bc:	ff ff       	.word	0xffff	; ????
     4be:	0f 0f       	add	r16, r31
     4c0:	0f 0f       	add	r16, r31
     4c2:	0f 38       	cpi	r16, 0x8F	; 143
     4c4:	44 44       	sbci	r20, 0x44	; 68
     4c6:	38 44       	sbci	r19, 0x48	; 72
     4c8:	fc 4a       	sbci	r31, 0xAC	; 172
     4ca:	4a 4a       	sbci	r20, 0xAA	; 170
     4cc:	34 7e       	andi	r19, 0xE4	; 228
     4ce:	02 02       	muls	r16, r18
     4d0:	06 06       	cpc	r0, r22
     4d2:	02 7e       	andi	r16, 0xE2	; 226
     4d4:	02 7e       	andi	r16, 0xE2	; 226
     4d6:	02 63       	ori	r16, 0x32	; 50
     4d8:	55 49       	sbci	r21, 0x95	; 149
     4da:	41 63       	ori	r20, 0x31	; 49
     4dc:	38 44       	sbci	r19, 0x48	; 72
     4de:	44 3c       	cpi	r20, 0xC4	; 196
     4e0:	04 40       	sbci	r16, 0x04	; 4
     4e2:	7e 20       	and	r7, r14
     4e4:	1e 20       	and	r1, r14
     4e6:	06 02       	muls	r16, r22
     4e8:	7e 02       	muls	r23, r30
     4ea:	02 99       	sbic	0x00, 2	; 0
     4ec:	a5 e7       	ldi	r26, 0x75	; 117
     4ee:	a5 99       	sbic	0x14, 5	; 20
     4f0:	1c 2a       	or	r1, r28
     4f2:	49 2a       	or	r4, r25
     4f4:	1c 4c       	sbci	r17, 0xCC	; 204
     4f6:	72 01       	movw	r14, r4
     4f8:	72 4c       	sbci	r23, 0xC2	; 194
     4fa:	30 4a       	sbci	r19, 0xA0	; 160
     4fc:	4d 4d       	sbci	r20, 0xDD	; 221
     4fe:	30 30       	cpi	r19, 0x00	; 0
     500:	48 78       	andi	r20, 0x88	; 136
     502:	48 30       	cpi	r20, 0x08	; 8
     504:	bc 62       	ori	r27, 0x2C	; 44
     506:	5a 46       	sbci	r21, 0x6A	; 106
     508:	3d 3e       	cpi	r19, 0xED	; 237
     50a:	49 49       	sbci	r20, 0x99	; 153
     50c:	49 00       	.word	0x0049	; ????
     50e:	7e 01       	movw	r14, r28
     510:	01 01       	movw	r0, r2
     512:	7e 2a       	or	r7, r30
     514:	2a 2a       	or	r2, r26
     516:	2a 2a       	or	r2, r26
     518:	44 44       	sbci	r20, 0x44	; 68
     51a:	5f 44       	sbci	r21, 0x4F	; 79
     51c:	44 40       	sbci	r20, 0x04	; 4
     51e:	51 4a       	sbci	r21, 0xA1	; 161
     520:	44 40       	sbci	r20, 0x04	; 4
     522:	40 44       	sbci	r20, 0x40	; 64
     524:	4a 51       	subi	r20, 0x1A	; 26
     526:	40 00       	.word	0x0040	; ????
     528:	00 ff       	sbrs	r16, 0
     52a:	01 03       	mulsu	r16, r17
     52c:	e0 80       	ld	r14, Z
     52e:	ff 00       	.word	0x00ff	; ????
     530:	00 08       	sbc	r0, r0
     532:	08 6b       	ori	r16, 0xB8	; 184
     534:	6b 08       	sbc	r6, r11
     536:	36 12       	cpse	r3, r22
     538:	36 24       	eor	r3, r6
     53a:	36 06       	cpc	r3, r22
     53c:	0f 09       	sbc	r16, r15
     53e:	0f 06       	cpc	r0, r31
     540:	00 00       	nop
     542:	18 18       	sub	r1, r8
     544:	00 00       	nop
     546:	00 10       	cpse	r0, r0
     548:	10 00       	.word	0x0010	; ????
     54a:	30 40       	sbci	r19, 0x00	; 0
     54c:	ff 01       	movw	r30, r30
     54e:	01 00       	.word	0x0001	; ????
     550:	1f 01       	movw	r2, r30
     552:	01 1e       	adc	r0, r17
     554:	00 19       	sub	r16, r0
     556:	1d 17       	cp	r17, r29
     558:	12 00       	.word	0x0012	; ????
     55a:	3c 3c       	cpi	r19, 0xCC	; 204
     55c:	3c 3c       	cpi	r19, 0xCC	; 204
     55e:	00 00       	nop
     560:	00 00       	nop
	...

00000563 <_ZZ12initPlatformvE3__c>:
     563:	44 45 56 49 43 45 5f 49 4e 49 54 49 41 4c 49 53     DEVICE_INITIALIS
     573:	45 44 0d 0a 00                                      ED...

00000578 <_ZZ15setCurrentLimitjE3__c>:
     578:	45 72 72 6f 72 21 20 43 75 72 72 65 6e 74 20 4c     Error! Current L
     588:	69 6d 69 74 20 52 65 71 75 65 73 74 65 64 20 4f     imit Requested O
     598:	75 74 20 6f 66 20 52 61 6e 67 65 00                 ut of Range.

000005a4 <_ZZ10setVoltagejE3__c>:
     5a4:	45 72 72 6f 72 21 20 56 6f 6c 74 61 67 65 20 52     Error! Voltage R
     5b4:	65 71 75 65 73 74 65 64 20 4f 75 74 20 6f 66 20     equested Out of 
     5c4:	52 61 6e 67 65 00                                   Range.

000005ca <_ZZ4mainE3__c_0>:
     5ca:	41 4e 54 49 2d 43 4c 4f 43 4b 57 49 53 45 00        ANTI-CLOCKWISE.

000005d9 <_ZZ4mainE3__c>:
     5d9:	43 4c 4f 43 4b 57 49 53 45 00                       CLOCKWISE.

000005e3 <_ZZ13displayUpdateffE3__c_0>:
     5e3:	56 73 65 74 3a 00                                   Vset:.

000005e9 <_ZZ13displayUpdateffE3__c>:
     5e9:	49 6c 69 6d 3a 00                                   Ilim:.

000005ef <_ZZN14Rotary_Encoder6configEhhhE3__c>:
     5ef:	52 6f 74 61 72 79 5f 45 6e 63 6f 64 65 72 28 29     Rotary_Encoder()
     5ff:	3a 3a 63 6f 6e 66 69 67 2d 3e 55 6e 6b 6e 6f 77     ::config->Unknow
     60f:	6e 20 50 43 49 4e 54 5f 50 4f 52 54 20 41 72 67     n PCINT_PORT Arg
     61f:	75 6d 65 6e 74 00                                   ument.

00000625 <digital_pin_to_timer_PGM>:
     625:	00 00 00 07 00 02 01 00 00 03 04 06 00 00 00 00     ................
     635:	00 00 00 00                                         ....

00000639 <digital_pin_to_bit_mask_PGM>:
     639:	01 02 04 08 10 20 40 80 01 02 04 08 10 20 01 02     ..... @...... ..
     649:	04 08 10 20                                         ... 

0000064d <digital_pin_to_port_PGM>:
     64d:	04 04 04 04 04 04 04 04 02 02 02 02 02 02 03 03     ................
     65d:	03 03 03 03                                         ....

00000661 <port_to_output_PGM>:
     661:	00 00 00 00 25 00 28 00 2b 00                       ....%.(.+.

0000066b <port_to_mode_PGM>:
     66b:	00 00 00 00 24 00 27 00 2a 00 00                    ....$.'.*..

00000676 <__ctors_start>:
     676:	7f 0c       	add	r7, r15
     678:	ce 11       	cpse	r28, r14

0000067a <__ctors_end>:
     67a:	11 24       	eor	r1, r1
     67c:	1f be       	out	0x3f, r1	; 63
     67e:	cf ef       	ldi	r28, 0xFF	; 255
     680:	d8 e0       	ldi	r29, 0x08	; 8
     682:	de bf       	out	0x3e, r29	; 62
     684:	cd bf       	out	0x3d, r28	; 61

00000686 <__do_copy_data>:
     686:	14 e0       	ldi	r17, 0x04	; 4
     688:	a0 e0       	ldi	r26, 0x00	; 0
     68a:	b1 e0       	ldi	r27, 0x01	; 1
     68c:	e0 e0       	ldi	r30, 0x00	; 0
     68e:	f6 e3       	ldi	r31, 0x36	; 54
     690:	02 c0       	rjmp	.+4      	; 0x696 <__do_copy_data+0x10>
     692:	05 90       	lpm	r0, Z+
     694:	0d 92       	st	X+, r0
     696:	a4 33       	cpi	r26, 0x34	; 52
     698:	b1 07       	cpc	r27, r17
     69a:	d9 f7       	brne	.-10     	; 0x692 <__do_copy_data+0xc>

0000069c <__do_clear_bss>:
     69c:	25 e0       	ldi	r18, 0x05	; 5
     69e:	a4 e3       	ldi	r26, 0x34	; 52
     6a0:	b4 e0       	ldi	r27, 0x04	; 4
     6a2:	01 c0       	rjmp	.+2      	; 0x6a6 <.do_clear_bss_start>

000006a4 <.do_clear_bss_loop>:
     6a4:	1d 92       	st	X+, r1

000006a6 <.do_clear_bss_start>:
     6a6:	af 33       	cpi	r26, 0x3F	; 63
     6a8:	b2 07       	cpc	r27, r18
     6aa:	e1 f7       	brne	.-8      	; 0x6a4 <.do_clear_bss_loop>

000006ac <__do_global_ctors>:
     6ac:	13 e0       	ldi	r17, 0x03	; 3
     6ae:	cd e3       	ldi	r28, 0x3D	; 61
     6b0:	d3 e0       	ldi	r29, 0x03	; 3
     6b2:	04 c0       	rjmp	.+8      	; 0x6bc <__do_global_ctors+0x10>
     6b4:	21 97       	sbiw	r28, 0x01	; 1
     6b6:	fe 01       	movw	r30, r28
     6b8:	0e 94 d7 19 	call	0x33ae	; 0x33ae <__tablejump2__>
     6bc:	cb 33       	cpi	r28, 0x3B	; 59
     6be:	d1 07       	cpc	r29, r17
     6c0:	c9 f7       	brne	.-14     	; 0x6b4 <__do_global_ctors+0x8>
     6c2:	0e 94 ab 0b 	call	0x1756	; 0x1756 <main>
     6c6:	0c 94 fe 1a 	jmp	0x35fc	; 0x35fc <_exit>

000006ca <__bad_interrupt>:
     6ca:	0c 94 00 00 	jmp	0	; 0x0 <__vectors>

000006ce <_ZN12Adafruit_GFX8drawLineEiiiij>:
     6ce:	2f 92       	push	r2
     6d0:	3f 92       	push	r3
     6d2:	4f 92       	push	r4
     6d4:	5f 92       	push	r5
     6d6:	6f 92       	push	r6
     6d8:	7f 92       	push	r7
     6da:	8f 92       	push	r8
     6dc:	9f 92       	push	r9
     6de:	af 92       	push	r10
     6e0:	bf 92       	push	r11
     6e2:	cf 92       	push	r12
     6e4:	df 92       	push	r13
     6e6:	ef 92       	push	r14
     6e8:	ff 92       	push	r15
     6ea:	0f 93       	push	r16
     6ec:	1f 93       	push	r17
     6ee:	cf 93       	push	r28
     6f0:	df 93       	push	r29
     6f2:	00 d0       	rcall	.+0      	; 0x6f4 <_ZN12Adafruit_GFX8drawLineEiiiij+0x26>
     6f4:	00 d0       	rcall	.+0      	; 0x6f6 <_ZN12Adafruit_GFX8drawLineEiiiij+0x28>
     6f6:	00 d0       	rcall	.+0      	; 0x6f8 <_ZN12Adafruit_GFX8drawLineEiiiij+0x2a>
     6f8:	cd b7       	in	r28, 0x3d	; 61
     6fa:	de b7       	in	r29, 0x3e	; 62
     6fc:	2c 01       	movw	r4, r24
     6fe:	7e 83       	std	Y+6, r23	; 0x06
     700:	6d 83       	std	Y+5, r22	; 0x05
     702:	6a 01       	movw	r12, r20
     704:	59 01       	movw	r10, r18
     706:	c8 01       	movw	r24, r16
     708:	fc 82       	std	Y+4, r15	; 0x04
     70a:	eb 82       	std	Y+3, r14	; 0x03
     70c:	48 01       	movw	r8, r16
     70e:	84 1a       	sub	r8, r20
     710:	95 0a       	sbc	r9, r21
     712:	97 fe       	sbrs	r9, 7
     714:	03 c0       	rjmp	.+6      	; 0x71c <_ZN12Adafruit_GFX8drawLineEiiiij+0x4e>
     716:	91 94       	neg	r9
     718:	81 94       	neg	r8
     71a:	91 08       	sbc	r9, r1
     71c:	35 01       	movw	r6, r10
     71e:	2d 81       	ldd	r18, Y+5	; 0x05
     720:	3e 81       	ldd	r19, Y+6	; 0x06
     722:	62 1a       	sub	r6, r18
     724:	73 0a       	sbc	r7, r19
     726:	77 fe       	sbrs	r7, 7
     728:	03 c0       	rjmp	.+6      	; 0x730 <_ZN12Adafruit_GFX8drawLineEiiiij+0x62>
     72a:	71 94       	neg	r7
     72c:	61 94       	neg	r6
     72e:	71 08       	sbc	r7, r1
     730:	68 14       	cp	r6, r8
     732:	79 04       	cpc	r7, r9
     734:	5c f4       	brge	.+22     	; 0x74c <_ZN12Adafruit_GFX8drawLineEiiiij+0x7e>
     736:	3a 2d       	mov	r19, r10
     738:	2b 2d       	mov	r18, r11
     73a:	5c 01       	movw	r10, r24
     73c:	83 2f       	mov	r24, r19
     73e:	92 2f       	mov	r25, r18
     740:	3d 81       	ldd	r19, Y+5	; 0x05
     742:	2e 81       	ldd	r18, Y+6	; 0x06
     744:	de 82       	std	Y+6, r13	; 0x06
     746:	cd 82       	std	Y+5, r12	; 0x05
     748:	c3 2e       	mov	r12, r19
     74a:	d2 2e       	mov	r13, r18
     74c:	ad 81       	ldd	r26, Y+5	; 0x05
     74e:	be 81       	ldd	r27, Y+6	; 0x06
     750:	aa 16       	cp	r10, r26
     752:	bb 06       	cpc	r11, r27
     754:	5c f4       	brge	.+22     	; 0x76c <_ZN12Adafruit_GFX8drawLineEiiiij+0x9e>
     756:	3c 2d       	mov	r19, r12
     758:	2d 2d       	mov	r18, r13
     75a:	6c 01       	movw	r12, r24
     75c:	83 2f       	mov	r24, r19
     75e:	92 2f       	mov	r25, r18
     760:	3d 81       	ldd	r19, Y+5	; 0x05
     762:	2e 81       	ldd	r18, Y+6	; 0x06
     764:	be 82       	std	Y+6, r11	; 0x06
     766:	ad 82       	std	Y+5, r10	; 0x05
     768:	a3 2e       	mov	r10, r19
     76a:	b2 2e       	mov	r11, r18
     76c:	85 01       	movw	r16, r10
     76e:	2d 81       	ldd	r18, Y+5	; 0x05
     770:	3e 81       	ldd	r19, Y+6	; 0x06
     772:	02 1b       	sub	r16, r18
     774:	13 0b       	sbc	r17, r19
     776:	1c 01       	movw	r2, r24
     778:	2c 18       	sub	r2, r12
     77a:	3d 08       	sbc	r3, r13
     77c:	37 fe       	sbrs	r3, 7
     77e:	03 c0       	rjmp	.+6      	; 0x786 <_ZN12Adafruit_GFX8drawLineEiiiij+0xb8>
     780:	31 94       	neg	r3
     782:	21 94       	neg	r2
     784:	31 08       	sbc	r3, r1
     786:	78 01       	movw	r14, r16
     788:	17 ff       	sbrs	r17, 7
     78a:	03 c0       	rjmp	.+6      	; 0x792 <_ZN12Adafruit_GFX8drawLineEiiiij+0xc4>
     78c:	3f ef       	ldi	r19, 0xFF	; 255
     78e:	e3 1a       	sub	r14, r19
     790:	f3 0a       	sbc	r15, r19
     792:	f5 94       	asr	r15
     794:	e7 94       	ror	r14
     796:	c8 16       	cp	r12, r24
     798:	d9 06       	cpc	r13, r25
     79a:	2c f0       	brlt	.+10     	; 0x7a6 <_ZN12Adafruit_GFX8drawLineEiiiij+0xd8>
     79c:	8f ef       	ldi	r24, 0xFF	; 255
     79e:	9f ef       	ldi	r25, 0xFF	; 255
     7a0:	9a 83       	std	Y+2, r25	; 0x02
     7a2:	89 83       	std	Y+1, r24	; 0x01
     7a4:	04 c0       	rjmp	.+8      	; 0x7ae <_ZN12Adafruit_GFX8drawLineEiiiij+0xe0>
     7a6:	a1 e0       	ldi	r26, 0x01	; 1
     7a8:	b0 e0       	ldi	r27, 0x00	; 0
     7aa:	ba 83       	std	Y+2, r27	; 0x02
     7ac:	a9 83       	std	Y+1, r26	; 0x01
     7ae:	2d 81       	ldd	r18, Y+5	; 0x05
     7b0:	3e 81       	ldd	r19, Y+6	; 0x06
     7b2:	a2 16       	cp	r10, r18
     7b4:	b3 06       	cpc	r11, r19
     7b6:	24 f1       	brlt	.+72     	; 0x800 <_ZN12Adafruit_GFX8drawLineEiiiij+0x132>
     7b8:	d2 01       	movw	r26, r4
     7ba:	ed 91       	ld	r30, X+
     7bc:	fc 91       	ld	r31, X
     7be:	04 80       	ldd	r0, Z+4	; 0x04
     7c0:	f5 81       	ldd	r31, Z+5	; 0x05
     7c2:	e0 2d       	mov	r30, r0
     7c4:	2b 81       	ldd	r18, Y+3	; 0x03
     7c6:	3c 81       	ldd	r19, Y+4	; 0x04
     7c8:	68 14       	cp	r6, r8
     7ca:	79 04       	cpc	r7, r9
     7cc:	24 f4       	brge	.+8      	; 0x7d6 <_ZN12Adafruit_GFX8drawLineEiiiij+0x108>
     7ce:	4d 81       	ldd	r20, Y+5	; 0x05
     7d0:	5e 81       	ldd	r21, Y+6	; 0x06
     7d2:	b6 01       	movw	r22, r12
     7d4:	03 c0       	rjmp	.+6      	; 0x7dc <_ZN12Adafruit_GFX8drawLineEiiiij+0x10e>
     7d6:	a6 01       	movw	r20, r12
     7d8:	6d 81       	ldd	r22, Y+5	; 0x05
     7da:	7e 81       	ldd	r23, Y+6	; 0x06
     7dc:	c2 01       	movw	r24, r4
     7de:	09 95       	icall
     7e0:	e2 18       	sub	r14, r2
     7e2:	f3 08       	sbc	r15, r3
     7e4:	f7 fe       	sbrs	r15, 7
     7e6:	06 c0       	rjmp	.+12     	; 0x7f4 <_ZN12Adafruit_GFX8drawLineEiiiij+0x126>
     7e8:	29 81       	ldd	r18, Y+1	; 0x01
     7ea:	3a 81       	ldd	r19, Y+2	; 0x02
     7ec:	c2 0e       	add	r12, r18
     7ee:	d3 1e       	adc	r13, r19
     7f0:	e0 0e       	add	r14, r16
     7f2:	f1 1e       	adc	r15, r17
     7f4:	8d 81       	ldd	r24, Y+5	; 0x05
     7f6:	9e 81       	ldd	r25, Y+6	; 0x06
     7f8:	01 96       	adiw	r24, 0x01	; 1
     7fa:	9e 83       	std	Y+6, r25	; 0x06
     7fc:	8d 83       	std	Y+5, r24	; 0x05
     7fe:	d7 cf       	rjmp	.-82     	; 0x7ae <_ZN12Adafruit_GFX8drawLineEiiiij+0xe0>
     800:	26 96       	adiw	r28, 0x06	; 6
     802:	0f b6       	in	r0, 0x3f	; 63
     804:	f8 94       	cli
     806:	de bf       	out	0x3e, r29	; 62
     808:	0f be       	out	0x3f, r0	; 63
     80a:	cd bf       	out	0x3d, r28	; 61
     80c:	df 91       	pop	r29
     80e:	cf 91       	pop	r28
     810:	1f 91       	pop	r17
     812:	0f 91       	pop	r16
     814:	ff 90       	pop	r15
     816:	ef 90       	pop	r14
     818:	df 90       	pop	r13
     81a:	cf 90       	pop	r12
     81c:	bf 90       	pop	r11
     81e:	af 90       	pop	r10
     820:	9f 90       	pop	r9
     822:	8f 90       	pop	r8
     824:	7f 90       	pop	r7
     826:	6f 90       	pop	r6
     828:	5f 90       	pop	r5
     82a:	4f 90       	pop	r4
     82c:	3f 90       	pop	r3
     82e:	2f 90       	pop	r2
     830:	08 95       	ret

00000832 <_ZN12Adafruit_GFX8drawRectEiiiij>:
     832:	6f 92       	push	r6
     834:	7f 92       	push	r7
     836:	8f 92       	push	r8
     838:	9f 92       	push	r9
     83a:	af 92       	push	r10
     83c:	bf 92       	push	r11
     83e:	cf 92       	push	r12
     840:	df 92       	push	r13
     842:	ef 92       	push	r14
     844:	ff 92       	push	r15
     846:	0f 93       	push	r16
     848:	1f 93       	push	r17
     84a:	cf 93       	push	r28
     84c:	df 93       	push	r29
     84e:	ec 01       	movw	r28, r24
     850:	4b 01       	movw	r8, r22
     852:	5a 01       	movw	r10, r20
     854:	69 01       	movw	r12, r18
     856:	38 01       	movw	r6, r16
     858:	e8 81       	ld	r30, Y
     85a:	f9 81       	ldd	r31, Y+1	; 0x01
     85c:	02 84       	ldd	r0, Z+10	; 0x0a
     85e:	f3 85       	ldd	r31, Z+11	; 0x0b
     860:	e0 2d       	mov	r30, r0
     862:	87 01       	movw	r16, r14
     864:	09 95       	icall
     866:	a5 01       	movw	r20, r10
     868:	46 0d       	add	r20, r6
     86a:	57 1d       	adc	r21, r7
     86c:	41 50       	subi	r20, 0x01	; 1
     86e:	51 09       	sbc	r21, r1
     870:	e8 81       	ld	r30, Y
     872:	f9 81       	ldd	r31, Y+1	; 0x01
     874:	02 84       	ldd	r0, Z+10	; 0x0a
     876:	f3 85       	ldd	r31, Z+11	; 0x0b
     878:	e0 2d       	mov	r30, r0
     87a:	96 01       	movw	r18, r12
     87c:	b4 01       	movw	r22, r8
     87e:	ce 01       	movw	r24, r28
     880:	09 95       	icall
     882:	e8 81       	ld	r30, Y
     884:	f9 81       	ldd	r31, Y+1	; 0x01
     886:	00 84       	ldd	r0, Z+8	; 0x08
     888:	f1 85       	ldd	r31, Z+9	; 0x09
     88a:	e0 2d       	mov	r30, r0
     88c:	93 01       	movw	r18, r6
     88e:	a5 01       	movw	r20, r10
     890:	b4 01       	movw	r22, r8
     892:	ce 01       	movw	r24, r28
     894:	09 95       	icall
     896:	c8 0c       	add	r12, r8
     898:	d9 1c       	adc	r13, r9
     89a:	b6 01       	movw	r22, r12
     89c:	61 50       	subi	r22, 0x01	; 1
     89e:	71 09       	sbc	r23, r1
     8a0:	e8 81       	ld	r30, Y
     8a2:	f9 81       	ldd	r31, Y+1	; 0x01
     8a4:	00 84       	ldd	r0, Z+8	; 0x08
     8a6:	f1 85       	ldd	r31, Z+9	; 0x09
     8a8:	e0 2d       	mov	r30, r0
     8aa:	93 01       	movw	r18, r6
     8ac:	a5 01       	movw	r20, r10
     8ae:	ce 01       	movw	r24, r28
     8b0:	09 95       	icall
     8b2:	df 91       	pop	r29
     8b4:	cf 91       	pop	r28
     8b6:	1f 91       	pop	r17
     8b8:	0f 91       	pop	r16
     8ba:	ff 90       	pop	r15
     8bc:	ef 90       	pop	r14
     8be:	df 90       	pop	r13
     8c0:	cf 90       	pop	r12
     8c2:	bf 90       	pop	r11
     8c4:	af 90       	pop	r10
     8c6:	9f 90       	pop	r9
     8c8:	8f 90       	pop	r8
     8ca:	7f 90       	pop	r7
     8cc:	6f 90       	pop	r6
     8ce:	08 95       	ret

000008d0 <_ZN12Adafruit_GFX13drawFastVLineEiiij>:
     8d0:	ef 92       	push	r14
     8d2:	ff 92       	push	r15
     8d4:	0f 93       	push	r16
     8d6:	1f 93       	push	r17
     8d8:	24 0f       	add	r18, r20
     8da:	35 1f       	adc	r19, r21
     8dc:	21 50       	subi	r18, 0x01	; 1
     8de:	31 09       	sbc	r19, r1
     8e0:	dc 01       	movw	r26, r24
     8e2:	ed 91       	ld	r30, X+
     8e4:	fc 91       	ld	r31, X
     8e6:	06 80       	ldd	r0, Z+6	; 0x06
     8e8:	f7 81       	ldd	r31, Z+7	; 0x07
     8ea:	e0 2d       	mov	r30, r0
     8ec:	78 01       	movw	r14, r16
     8ee:	89 01       	movw	r16, r18
     8f0:	9b 01       	movw	r18, r22
     8f2:	09 95       	icall
     8f4:	1f 91       	pop	r17
     8f6:	0f 91       	pop	r16
     8f8:	ff 90       	pop	r15
     8fa:	ef 90       	pop	r14
     8fc:	08 95       	ret

000008fe <_ZN12Adafruit_GFX13drawFastHLineEiiij>:
     8fe:	ef 92       	push	r14
     900:	ff 92       	push	r15
     902:	0f 93       	push	r16
     904:	1f 93       	push	r17
     906:	26 0f       	add	r18, r22
     908:	37 1f       	adc	r19, r23
     90a:	21 50       	subi	r18, 0x01	; 1
     90c:	31 09       	sbc	r19, r1
     90e:	dc 01       	movw	r26, r24
     910:	ed 91       	ld	r30, X+
     912:	fc 91       	ld	r31, X
     914:	06 80       	ldd	r0, Z+6	; 0x06
     916:	f7 81       	ldd	r31, Z+7	; 0x07
     918:	e0 2d       	mov	r30, r0
     91a:	78 01       	movw	r14, r16
     91c:	8a 01       	movw	r16, r20
     91e:	09 95       	icall
     920:	1f 91       	pop	r17
     922:	0f 91       	pop	r16
     924:	ff 90       	pop	r15
     926:	ef 90       	pop	r14
     928:	08 95       	ret

0000092a <_ZN12Adafruit_GFX8fillRectEiiiij>:
     92a:	6f 92       	push	r6
     92c:	7f 92       	push	r7
     92e:	8f 92       	push	r8
     930:	9f 92       	push	r9
     932:	af 92       	push	r10
     934:	bf 92       	push	r11
     936:	cf 92       	push	r12
     938:	df 92       	push	r13
     93a:	ef 92       	push	r14
     93c:	ff 92       	push	r15
     93e:	0f 93       	push	r16
     940:	1f 93       	push	r17
     942:	cf 93       	push	r28
     944:	df 93       	push	r29
     946:	6c 01       	movw	r12, r24
     948:	5a 01       	movw	r10, r20
     94a:	48 01       	movw	r8, r16
     94c:	eb 01       	movw	r28, r22
     94e:	3b 01       	movw	r6, r22
     950:	62 0e       	add	r6, r18
     952:	73 1e       	adc	r7, r19
     954:	c6 15       	cp	r28, r6
     956:	d7 05       	cpc	r29, r7
     958:	74 f4       	brge	.+28     	; 0x976 <_ZN12Adafruit_GFX8fillRectEiiiij+0x4c>
     95a:	d6 01       	movw	r26, r12
     95c:	ed 91       	ld	r30, X+
     95e:	fc 91       	ld	r31, X
     960:	00 84       	ldd	r0, Z+8	; 0x08
     962:	f1 85       	ldd	r31, Z+9	; 0x09
     964:	e0 2d       	mov	r30, r0
     966:	87 01       	movw	r16, r14
     968:	94 01       	movw	r18, r8
     96a:	a5 01       	movw	r20, r10
     96c:	be 01       	movw	r22, r28
     96e:	c6 01       	movw	r24, r12
     970:	09 95       	icall
     972:	21 96       	adiw	r28, 0x01	; 1
     974:	ef cf       	rjmp	.-34     	; 0x954 <_ZN12Adafruit_GFX8fillRectEiiiij+0x2a>
     976:	df 91       	pop	r29
     978:	cf 91       	pop	r28
     97a:	1f 91       	pop	r17
     97c:	0f 91       	pop	r16
     97e:	ff 90       	pop	r15
     980:	ef 90       	pop	r14
     982:	df 90       	pop	r13
     984:	cf 90       	pop	r12
     986:	bf 90       	pop	r11
     988:	af 90       	pop	r10
     98a:	9f 90       	pop	r9
     98c:	8f 90       	pop	r8
     98e:	7f 90       	pop	r7
     990:	6f 90       	pop	r6
     992:	08 95       	ret

00000994 <_ZN12Adafruit_GFX10fillScreenEj>:
     994:	ef 92       	push	r14
     996:	ff 92       	push	r15
     998:	0f 93       	push	r16
     99a:	1f 93       	push	r17
     99c:	dc 01       	movw	r26, r24
     99e:	1a 96       	adiw	r26, 0x0a	; 10
     9a0:	0d 91       	ld	r16, X+
     9a2:	1c 91       	ld	r17, X
     9a4:	1b 97       	sbiw	r26, 0x0b	; 11
     9a6:	18 96       	adiw	r26, 0x08	; 8
     9a8:	2d 91       	ld	r18, X+
     9aa:	3c 91       	ld	r19, X
     9ac:	19 97       	sbiw	r26, 0x09	; 9
     9ae:	ed 91       	ld	r30, X+
     9b0:	fc 91       	ld	r31, X
     9b2:	06 84       	ldd	r0, Z+14	; 0x0e
     9b4:	f7 85       	ldd	r31, Z+15	; 0x0f
     9b6:	e0 2d       	mov	r30, r0
     9b8:	7b 01       	movw	r14, r22
     9ba:	40 e0       	ldi	r20, 0x00	; 0
     9bc:	50 e0       	ldi	r21, 0x00	; 0
     9be:	60 e0       	ldi	r22, 0x00	; 0
     9c0:	70 e0       	ldi	r23, 0x00	; 0
     9c2:	09 95       	icall
     9c4:	1f 91       	pop	r17
     9c6:	0f 91       	pop	r16
     9c8:	ff 90       	pop	r15
     9ca:	ef 90       	pop	r14
     9cc:	08 95       	ret

000009ce <_ZN12Adafruit_GFX13invertDisplayEh>:
     9ce:	08 95       	ret

000009d0 <_ZN12Adafruit_GFXC1Eii>:
     9d0:	fc 01       	movw	r30, r24
     9d2:	13 82       	std	Z+3, r1	; 0x03
     9d4:	12 82       	std	Z+2, r1	; 0x02
     9d6:	84 e0       	ldi	r24, 0x04	; 4
     9d8:	93 e0       	ldi	r25, 0x03	; 3
     9da:	91 83       	std	Z+1, r25	; 0x01
     9dc:	80 83       	st	Z, r24
     9de:	75 83       	std	Z+5, r23	; 0x05
     9e0:	64 83       	std	Z+4, r22	; 0x04
     9e2:	57 83       	std	Z+7, r21	; 0x07
     9e4:	46 83       	std	Z+6, r20	; 0x06
     9e6:	71 87       	std	Z+9, r23	; 0x09
     9e8:	60 87       	std	Z+8, r22	; 0x08
     9ea:	53 87       	std	Z+11, r21	; 0x0b
     9ec:	42 87       	std	Z+10, r20	; 0x0a
     9ee:	15 8a       	std	Z+21, r1	; 0x15
     9f0:	15 86       	std	Z+13, r1	; 0x0d
     9f2:	14 86       	std	Z+12, r1	; 0x0c
     9f4:	17 86       	std	Z+15, r1	; 0x0f
     9f6:	16 86       	std	Z+14, r1	; 0x0e
     9f8:	81 e0       	ldi	r24, 0x01	; 1
     9fa:	84 8b       	std	Z+20, r24	; 0x14
     9fc:	2f ef       	ldi	r18, 0xFF	; 255
     9fe:	3f ef       	ldi	r19, 0xFF	; 255
     a00:	33 8b       	std	Z+19, r19	; 0x13
     a02:	22 8b       	std	Z+18, r18	; 0x12
     a04:	31 8b       	std	Z+17, r19	; 0x11
     a06:	20 8b       	std	Z+16, r18	; 0x10
     a08:	86 8b       	std	Z+22, r24	; 0x16
     a0a:	08 95       	ret

00000a0c <_ZN12Adafruit_GFX8drawCharEiihjjh>:
     a0c:	2f 92       	push	r2
     a0e:	3f 92       	push	r3
     a10:	4f 92       	push	r4
     a12:	5f 92       	push	r5
     a14:	6f 92       	push	r6
     a16:	7f 92       	push	r7
     a18:	8f 92       	push	r8
     a1a:	9f 92       	push	r9
     a1c:	af 92       	push	r10
     a1e:	bf 92       	push	r11
     a20:	cf 92       	push	r12
     a22:	df 92       	push	r13
     a24:	ef 92       	push	r14
     a26:	ff 92       	push	r15
     a28:	0f 93       	push	r16
     a2a:	1f 93       	push	r17
     a2c:	cf 93       	push	r28
     a2e:	df 93       	push	r29
     a30:	cd b7       	in	r28, 0x3d	; 61
     a32:	de b7       	in	r29, 0x3e	; 62
     a34:	2d 97       	sbiw	r28, 0x0d	; 13
     a36:	0f b6       	in	r0, 0x3f	; 63
     a38:	f8 94       	cli
     a3a:	de bf       	out	0x3e, r29	; 62
     a3c:	0f be       	out	0x3f, r0	; 63
     a3e:	cd bf       	out	0x3d, r28	; 61
     a40:	dc 01       	movw	r26, r24
     a42:	18 96       	adiw	r26, 0x08	; 8
     a44:	ed 91       	ld	r30, X+
     a46:	fc 91       	ld	r31, X
     a48:	19 97       	sbiw	r26, 0x09	; 9
     a4a:	6e 17       	cp	r22, r30
     a4c:	7f 07       	cpc	r23, r31
     a4e:	0c f0       	brlt	.+2      	; 0xa52 <_ZN12Adafruit_GFX8drawCharEiihjjh+0x46>
     a50:	9b c0       	rjmp	.+310    	; 0xb88 <_ZN12Adafruit_GFX8drawCharEiihjjh+0x17c>
     a52:	1a 96       	adiw	r26, 0x0a	; 10
     a54:	ed 91       	ld	r30, X+
     a56:	fc 91       	ld	r31, X
     a58:	1b 97       	sbiw	r26, 0x0b	; 11
     a5a:	4e 17       	cp	r20, r30
     a5c:	5f 07       	cpc	r21, r31
     a5e:	0c f0       	brlt	.+2      	; 0xa62 <_ZN12Adafruit_GFX8drawCharEiihjjh+0x56>
     a60:	93 c0       	rjmp	.+294    	; 0xb88 <_ZN12Adafruit_GFX8drawCharEiihjjh+0x17c>
     a62:	8c 2c       	mov	r8, r12
     a64:	91 2c       	mov	r9, r1
     a66:	fb 01       	movw	r30, r22
     a68:	b6 e0       	ldi	r27, 0x06	; 6
     a6a:	cb 9e       	mul	r12, r27
     a6c:	e0 0d       	add	r30, r0
     a6e:	f1 1d       	adc	r31, r1
     a70:	11 24       	eor	r1, r1
     a72:	1e 16       	cp	r1, r30
     a74:	1f 06       	cpc	r1, r31
     a76:	0c f0       	brlt	.+2      	; 0xa7a <_ZN12Adafruit_GFX8drawCharEiihjjh+0x6e>
     a78:	87 c0       	rjmp	.+270    	; 0xb88 <_ZN12Adafruit_GFX8drawCharEiihjjh+0x17c>
     a7a:	f4 01       	movw	r30, r8
     a7c:	33 e0       	ldi	r19, 0x03	; 3
     a7e:	ee 0f       	add	r30, r30
     a80:	ff 1f       	adc	r31, r31
     a82:	3a 95       	dec	r19
     a84:	e1 f7       	brne	.-8      	; 0xa7e <_ZN12Adafruit_GFX8drawCharEiihjjh+0x72>
     a86:	e4 0f       	add	r30, r20
     a88:	f5 1f       	adc	r31, r21
     a8a:	1e 16       	cp	r1, r30
     a8c:	1f 06       	cpc	r1, r31
     a8e:	0c f0       	brlt	.+2      	; 0xa92 <_ZN12Adafruit_GFX8drawCharEiihjjh+0x86>
     a90:	7b c0       	rjmp	.+246    	; 0xb88 <_ZN12Adafruit_GFX8drawCharEiihjjh+0x17c>
     a92:	cf 82       	std	Y+7, r12	; 0x07
     a94:	fe 82       	std	Y+6, r15	; 0x06
     a96:	ed 82       	std	Y+5, r14	; 0x05
     a98:	1c 83       	std	Y+4, r17	; 0x04
     a9a:	0b 83       	std	Y+3, r16	; 0x03
     a9c:	1a 01       	movw	r2, r20
     a9e:	5c 01       	movw	r10, r24
     aa0:	45 e0       	ldi	r20, 0x05	; 5
     aa2:	24 9f       	mul	r18, r20
     aa4:	90 01       	movw	r18, r0
     aa6:	11 24       	eor	r1, r1
     aa8:	7d 87       	std	Y+13, r23	; 0x0d
     aaa:	6c 87       	std	Y+12, r22	; 0x0c
     aac:	3b 01       	movw	r6, r22
     aae:	1a 82       	std	Y+2, r1	; 0x02
     ab0:	c9 01       	movw	r24, r18
     ab2:	86 1b       	sub	r24, r22
     ab4:	97 0b       	sbc	r25, r23
     ab6:	99 87       	std	Y+9, r25	; 0x09
     ab8:	88 87       	std	Y+8, r24	; 0x08
     aba:	d1 01       	movw	r26, r2
     abc:	18 96       	adiw	r26, 0x08	; 8
     abe:	bb 87       	std	Y+11, r27	; 0x0b
     ac0:	aa 87       	std	Y+10, r26	; 0x0a
     ac2:	ba 81       	ldd	r27, Y+2	; 0x02
     ac4:	b5 30       	cpi	r27, 0x05	; 5
     ac6:	49 f0       	breq	.+18     	; 0xada <_ZN12Adafruit_GFX8drawCharEiihjjh+0xce>
     ac8:	e8 85       	ldd	r30, Y+8	; 0x08
     aca:	f9 85       	ldd	r31, Y+9	; 0x09
     acc:	e6 0d       	add	r30, r6
     ace:	f7 1d       	adc	r31, r7
     ad0:	e8 59       	subi	r30, 0x98	; 152
     ad2:	ff 4f       	sbci	r31, 0xFF	; 255
     ad4:	24 91       	lpm	r18, Z
     ad6:	29 83       	std	Y+1, r18	; 0x01
     ad8:	01 c0       	rjmp	.+2      	; 0xadc <_ZN12Adafruit_GFX8drawCharEiihjjh+0xd0>
     ada:	19 82       	std	Y+1, r1	; 0x01
     adc:	21 01       	movw	r4, r2
     ade:	61 01       	movw	r12, r2
     ae0:	39 81       	ldd	r19, Y+1	; 0x01
     ae2:	30 ff       	sbrs	r19, 0
     ae4:	12 c0       	rjmp	.+36     	; 0xb0a <_ZN12Adafruit_GFX8drawCharEiihjjh+0xfe>
     ae6:	d5 01       	movw	r26, r10
     ae8:	ed 91       	ld	r30, X+
     aea:	fc 91       	ld	r31, X
     aec:	bf 81       	ldd	r27, Y+7	; 0x07
     aee:	b1 30       	cpi	r27, 0x01	; 1
     af0:	31 f4       	brne	.+12     	; 0xafe <_ZN12Adafruit_GFX8drawCharEiihjjh+0xf2>
     af2:	04 80       	ldd	r0, Z+4	; 0x04
     af4:	f5 81       	ldd	r31, Z+5	; 0x05
     af6:	e0 2d       	mov	r30, r0
     af8:	2b 81       	ldd	r18, Y+3	; 0x03
     afa:	3c 81       	ldd	r19, Y+4	; 0x04
     afc:	17 c0       	rjmp	.+46     	; 0xb2c <_ZN12Adafruit_GFX8drawCharEiihjjh+0x120>
     afe:	06 84       	ldd	r0, Z+14	; 0x0e
     b00:	f7 85       	ldd	r31, Z+15	; 0x0f
     b02:	e0 2d       	mov	r30, r0
     b04:	eb 80       	ldd	r14, Y+3	; 0x03
     b06:	fc 80       	ldd	r15, Y+4	; 0x04
     b08:	1b c0       	rjmp	.+54     	; 0xb40 <_ZN12Adafruit_GFX8drawCharEiihjjh+0x134>
     b0a:	2b 81       	ldd	r18, Y+3	; 0x03
     b0c:	3c 81       	ldd	r19, Y+4	; 0x04
     b0e:	4d 81       	ldd	r20, Y+5	; 0x05
     b10:	5e 81       	ldd	r21, Y+6	; 0x06
     b12:	24 17       	cp	r18, r20
     b14:	35 07       	cpc	r19, r21
     b16:	d9 f0       	breq	.+54     	; 0xb4e <_ZN12Adafruit_GFX8drawCharEiihjjh+0x142>
     b18:	d5 01       	movw	r26, r10
     b1a:	ed 91       	ld	r30, X+
     b1c:	fc 91       	ld	r31, X
     b1e:	bf 81       	ldd	r27, Y+7	; 0x07
     b20:	b1 30       	cpi	r27, 0x01	; 1
     b22:	49 f4       	brne	.+18     	; 0xb36 <_ZN12Adafruit_GFX8drawCharEiihjjh+0x12a>
     b24:	04 80       	ldd	r0, Z+4	; 0x04
     b26:	f5 81       	ldd	r31, Z+5	; 0x05
     b28:	e0 2d       	mov	r30, r0
     b2a:	9a 01       	movw	r18, r20
     b2c:	a2 01       	movw	r20, r4
     b2e:	b3 01       	movw	r22, r6
     b30:	c5 01       	movw	r24, r10
     b32:	09 95       	icall
     b34:	0c c0       	rjmp	.+24     	; 0xb4e <_ZN12Adafruit_GFX8drawCharEiihjjh+0x142>
     b36:	06 84       	ldd	r0, Z+14	; 0x0e
     b38:	f7 85       	ldd	r31, Z+15	; 0x0f
     b3a:	e0 2d       	mov	r30, r0
     b3c:	ed 80       	ldd	r14, Y+5	; 0x05
     b3e:	fe 80       	ldd	r15, Y+6	; 0x06
     b40:	84 01       	movw	r16, r8
     b42:	94 01       	movw	r18, r8
     b44:	a6 01       	movw	r20, r12
     b46:	6c 85       	ldd	r22, Y+12	; 0x0c
     b48:	7d 85       	ldd	r23, Y+13	; 0x0d
     b4a:	c5 01       	movw	r24, r10
     b4c:	09 95       	icall
     b4e:	29 81       	ldd	r18, Y+1	; 0x01
     b50:	26 95       	lsr	r18
     b52:	29 83       	std	Y+1, r18	; 0x01
     b54:	3f ef       	ldi	r19, 0xFF	; 255
     b56:	43 1a       	sub	r4, r19
     b58:	53 0a       	sbc	r5, r19
     b5a:	c8 0c       	add	r12, r8
     b5c:	d9 1c       	adc	r13, r9
     b5e:	4a 85       	ldd	r20, Y+10	; 0x0a
     b60:	5b 85       	ldd	r21, Y+11	; 0x0b
     b62:	44 16       	cp	r4, r20
     b64:	55 06       	cpc	r5, r21
     b66:	09 f0       	breq	.+2      	; 0xb6a <_ZN12Adafruit_GFX8drawCharEiihjjh+0x15e>
     b68:	bb cf       	rjmp	.-138    	; 0xae0 <_ZN12Adafruit_GFX8drawCharEiihjjh+0xd4>
     b6a:	5a 81       	ldd	r21, Y+2	; 0x02
     b6c:	5f 5f       	subi	r21, 0xFF	; 255
     b6e:	5a 83       	std	Y+2, r21	; 0x02
     b70:	8f ef       	ldi	r24, 0xFF	; 255
     b72:	68 1a       	sub	r6, r24
     b74:	78 0a       	sbc	r7, r24
     b76:	ac 85       	ldd	r26, Y+12	; 0x0c
     b78:	bd 85       	ldd	r27, Y+13	; 0x0d
     b7a:	a8 0d       	add	r26, r8
     b7c:	b9 1d       	adc	r27, r9
     b7e:	bd 87       	std	Y+13, r27	; 0x0d
     b80:	ac 87       	std	Y+12, r26	; 0x0c
     b82:	56 30       	cpi	r21, 0x06	; 6
     b84:	09 f0       	breq	.+2      	; 0xb88 <_ZN12Adafruit_GFX8drawCharEiihjjh+0x17c>
     b86:	9d cf       	rjmp	.-198    	; 0xac2 <_ZN12Adafruit_GFX8drawCharEiihjjh+0xb6>
     b88:	2d 96       	adiw	r28, 0x0d	; 13
     b8a:	0f b6       	in	r0, 0x3f	; 63
     b8c:	f8 94       	cli
     b8e:	de bf       	out	0x3e, r29	; 62
     b90:	0f be       	out	0x3f, r0	; 63
     b92:	cd bf       	out	0x3d, r28	; 61
     b94:	df 91       	pop	r29
     b96:	cf 91       	pop	r28
     b98:	1f 91       	pop	r17
     b9a:	0f 91       	pop	r16
     b9c:	ff 90       	pop	r15
     b9e:	ef 90       	pop	r14
     ba0:	df 90       	pop	r13
     ba2:	cf 90       	pop	r12
     ba4:	bf 90       	pop	r11
     ba6:	af 90       	pop	r10
     ba8:	9f 90       	pop	r9
     baa:	8f 90       	pop	r8
     bac:	7f 90       	pop	r7
     bae:	6f 90       	pop	r6
     bb0:	5f 90       	pop	r5
     bb2:	4f 90       	pop	r4
     bb4:	3f 90       	pop	r3
     bb6:	2f 90       	pop	r2
     bb8:	08 95       	ret

00000bba <_ZN12Adafruit_GFX5writeEh>:
     bba:	cf 92       	push	r12
     bbc:	ef 92       	push	r14
     bbe:	ff 92       	push	r15
     bc0:	0f 93       	push	r16
     bc2:	1f 93       	push	r17
     bc4:	cf 93       	push	r28
     bc6:	df 93       	push	r29
     bc8:	ec 01       	movw	r28, r24
     bca:	6a 30       	cpi	r22, 0x0A	; 10
     bcc:	59 f4       	brne	.+22     	; 0xbe4 <_ZN12Adafruit_GFX5writeEh+0x2a>
     bce:	2c 89       	ldd	r18, Y+20	; 0x14
     bd0:	8e 85       	ldd	r24, Y+14	; 0x0e
     bd2:	9f 85       	ldd	r25, Y+15	; 0x0f
     bd4:	38 e0       	ldi	r19, 0x08	; 8
     bd6:	23 9f       	mul	r18, r19
     bd8:	80 0d       	add	r24, r0
     bda:	91 1d       	adc	r25, r1
     bdc:	11 24       	eor	r1, r1
     bde:	9f 87       	std	Y+15, r25	; 0x0f
     be0:	8e 87       	std	Y+14, r24	; 0x0e
     be2:	35 c0       	rjmp	.+106    	; 0xc4e <_ZN12Adafruit_GFX5writeEh+0x94>
     be4:	6d 30       	cpi	r22, 0x0D	; 13
     be6:	a9 f1       	breq	.+106    	; 0xc52 <_ZN12Adafruit_GFX5writeEh+0x98>
     be8:	26 2f       	mov	r18, r22
     bea:	ea 88       	ldd	r14, Y+18	; 0x12
     bec:	fb 88       	ldd	r15, Y+19	; 0x13
     bee:	08 89       	ldd	r16, Y+16	; 0x10
     bf0:	19 89       	ldd	r17, Y+17	; 0x11
     bf2:	4e 85       	ldd	r20, Y+14	; 0x0e
     bf4:	5f 85       	ldd	r21, Y+15	; 0x0f
     bf6:	6c 85       	ldd	r22, Y+12	; 0x0c
     bf8:	7d 85       	ldd	r23, Y+13	; 0x0d
     bfa:	cc 88       	ldd	r12, Y+20	; 0x14
     bfc:	0e 94 06 05 	call	0xa0c	; 0xa0c <_ZN12Adafruit_GFX8drawCharEiihjjh>
     c00:	4c 89       	ldd	r20, Y+20	; 0x14
     c02:	24 2f       	mov	r18, r20
     c04:	30 e0       	ldi	r19, 0x00	; 0
     c06:	8c 85       	ldd	r24, Y+12	; 0x0c
     c08:	9d 85       	ldd	r25, Y+13	; 0x0d
     c0a:	56 e0       	ldi	r21, 0x06	; 6
     c0c:	45 9f       	mul	r20, r21
     c0e:	80 0d       	add	r24, r0
     c10:	91 1d       	adc	r25, r1
     c12:	11 24       	eor	r1, r1
     c14:	9d 87       	std	Y+13, r25	; 0x0d
     c16:	8c 87       	std	Y+12, r24	; 0x0c
     c18:	4e 89       	ldd	r20, Y+22	; 0x16
     c1a:	44 23       	and	r20, r20
     c1c:	d1 f0       	breq	.+52     	; 0xc52 <_ZN12Adafruit_GFX5writeEh+0x98>
     c1e:	4a ef       	ldi	r20, 0xFA	; 250
     c20:	42 03       	mulsu	r20, r18
     c22:	b0 01       	movw	r22, r0
     c24:	43 9f       	mul	r20, r19
     c26:	70 0d       	add	r23, r0
     c28:	11 24       	eor	r1, r1
     c2a:	48 85       	ldd	r20, Y+8	; 0x08
     c2c:	59 85       	ldd	r21, Y+9	; 0x09
     c2e:	46 0f       	add	r20, r22
     c30:	57 1f       	adc	r21, r23
     c32:	48 17       	cp	r20, r24
     c34:	59 07       	cpc	r21, r25
     c36:	6c f4       	brge	.+26     	; 0xc52 <_ZN12Adafruit_GFX5writeEh+0x98>
     c38:	83 e0       	ldi	r24, 0x03	; 3
     c3a:	22 0f       	add	r18, r18
     c3c:	33 1f       	adc	r19, r19
     c3e:	8a 95       	dec	r24
     c40:	e1 f7       	brne	.-8      	; 0xc3a <_ZN12Adafruit_GFX5writeEh+0x80>
     c42:	8e 85       	ldd	r24, Y+14	; 0x0e
     c44:	9f 85       	ldd	r25, Y+15	; 0x0f
     c46:	28 0f       	add	r18, r24
     c48:	39 1f       	adc	r19, r25
     c4a:	3f 87       	std	Y+15, r19	; 0x0f
     c4c:	2e 87       	std	Y+14, r18	; 0x0e
     c4e:	1d 86       	std	Y+13, r1	; 0x0d
     c50:	1c 86       	std	Y+12, r1	; 0x0c
     c52:	81 e0       	ldi	r24, 0x01	; 1
     c54:	90 e0       	ldi	r25, 0x00	; 0
     c56:	df 91       	pop	r29
     c58:	cf 91       	pop	r28
     c5a:	1f 91       	pop	r17
     c5c:	0f 91       	pop	r16
     c5e:	ff 90       	pop	r15
     c60:	ef 90       	pop	r14
     c62:	cf 90       	pop	r12
     c64:	08 95       	ret

00000c66 <_ZN12Adafruit_GFX11setTextSizeEh>:
     c66:	61 11       	cpse	r22, r1
     c68:	01 c0       	rjmp	.+2      	; 0xc6c <_ZN12Adafruit_GFX11setTextSizeEh+0x6>
     c6a:	61 e0       	ldi	r22, 0x01	; 1
     c6c:	fc 01       	movw	r30, r24
     c6e:	64 8b       	std	Z+20, r22	; 0x14
     c70:	08 95       	ret

00000c72 <_ZN12Adafruit_GFX12setTextColorEj>:
     c72:	fc 01       	movw	r30, r24
     c74:	73 8b       	std	Z+19, r23	; 0x13
     c76:	62 8b       	std	Z+18, r22	; 0x12
     c78:	71 8b       	std	Z+17, r23	; 0x11
     c7a:	60 8b       	std	Z+16, r22	; 0x10
     c7c:	08 95       	ret

00000c7e <_ZN12Adafruit_GFX12setTextColorEjj>:
     c7e:	fc 01       	movw	r30, r24
     c80:	71 8b       	std	Z+17, r23	; 0x11
     c82:	60 8b       	std	Z+16, r22	; 0x10
     c84:	53 8b       	std	Z+19, r21	; 0x13
     c86:	42 8b       	std	Z+18, r20	; 0x12
     c88:	08 95       	ret

00000c8a <_ZN12Adafruit_GFX11setTextWrapEh>:
     c8a:	fc 01       	movw	r30, r24
     c8c:	66 8b       	std	Z+22, r22	; 0x16
     c8e:	08 95       	ret

00000c90 <_ZN12Adafruit_GFX11setRotationEh>:
     c90:	fc 01       	movw	r30, r24
     c92:	63 70       	andi	r22, 0x03	; 3
     c94:	65 8b       	std	Z+21, r22	; 0x15
     c96:	84 81       	ldd	r24, Z+4	; 0x04
     c98:	95 81       	ldd	r25, Z+5	; 0x05
     c9a:	26 81       	ldd	r18, Z+6	; 0x06
     c9c:	37 81       	ldd	r19, Z+7	; 0x07
     c9e:	61 30       	cpi	r22, 0x01	; 1
     ca0:	39 f0       	breq	.+14     	; 0xcb0 <_ZN12Adafruit_GFX11setRotationEh+0x20>
     ca2:	63 30       	cpi	r22, 0x03	; 3
     ca4:	29 f0       	breq	.+10     	; 0xcb0 <_ZN12Adafruit_GFX11setRotationEh+0x20>
     ca6:	91 87       	std	Z+9, r25	; 0x09
     ca8:	80 87       	std	Z+8, r24	; 0x08
     caa:	33 87       	std	Z+11, r19	; 0x0b
     cac:	22 87       	std	Z+10, r18	; 0x0a
     cae:	08 95       	ret
     cb0:	31 87       	std	Z+9, r19	; 0x09
     cb2:	20 87       	std	Z+8, r18	; 0x08
     cb4:	93 87       	std	Z+11, r25	; 0x0b
     cb6:	82 87       	std	Z+10, r24	; 0x0a
     cb8:	08 95       	ret

00000cba <_ZN16Adafruit_PCD85449drawPixelEiij>:
     cba:	fc 01       	movw	r30, r24
     cbc:	77 fd       	sbrc	r23, 7
     cbe:	68 c0       	rjmp	.+208    	; 0xd90 <_ZN16Adafruit_PCD85449drawPixelEiij+0xd6>
     cc0:	80 85       	ldd	r24, Z+8	; 0x08
     cc2:	91 85       	ldd	r25, Z+9	; 0x09
     cc4:	68 17       	cp	r22, r24
     cc6:	79 07       	cpc	r23, r25
     cc8:	0c f0       	brlt	.+2      	; 0xccc <_ZN16Adafruit_PCD85449drawPixelEiij+0x12>
     cca:	62 c0       	rjmp	.+196    	; 0xd90 <_ZN16Adafruit_PCD85449drawPixelEiij+0xd6>
     ccc:	57 fd       	sbrc	r21, 7
     cce:	60 c0       	rjmp	.+192    	; 0xd90 <_ZN16Adafruit_PCD85449drawPixelEiij+0xd6>
     cd0:	82 85       	ldd	r24, Z+10	; 0x0a
     cd2:	93 85       	ldd	r25, Z+11	; 0x0b
     cd4:	48 17       	cp	r20, r24
     cd6:	59 07       	cpc	r21, r25
     cd8:	0c f0       	brlt	.+2      	; 0xcdc <_ZN16Adafruit_PCD85449drawPixelEiij+0x22>
     cda:	5a c0       	rjmp	.+180    	; 0xd90 <_ZN16Adafruit_PCD85449drawPixelEiij+0xd6>
     cdc:	85 89       	ldd	r24, Z+21	; 0x15
     cde:	82 30       	cpi	r24, 0x02	; 2
     ce0:	59 f0       	breq	.+22     	; 0xcf8 <_ZN16Adafruit_PCD85449drawPixelEiij+0x3e>
     ce2:	83 30       	cpi	r24, 0x03	; 3
     ce4:	b1 f0       	breq	.+44     	; 0xd12 <_ZN16Adafruit_PCD85449drawPixelEiij+0x58>
     ce6:	81 30       	cpi	r24, 0x01	; 1
     ce8:	d1 f4       	brne	.+52     	; 0xd1e <_ZN16Adafruit_PCD85449drawPixelEiij+0x64>
     cea:	8f e2       	ldi	r24, 0x2F	; 47
     cec:	90 e0       	ldi	r25, 0x00	; 0
     cee:	86 1b       	sub	r24, r22
     cf0:	97 0b       	sbc	r25, r23
     cf2:	ba 01       	movw	r22, r20
     cf4:	ac 01       	movw	r20, r24
     cf6:	13 c0       	rjmp	.+38     	; 0xd1e <_ZN16Adafruit_PCD85449drawPixelEiij+0x64>
     cf8:	83 e5       	ldi	r24, 0x53	; 83
     cfa:	90 e0       	ldi	r25, 0x00	; 0
     cfc:	fc 01       	movw	r30, r24
     cfe:	e6 1b       	sub	r30, r22
     d00:	f7 0b       	sbc	r31, r23
     d02:	bf 01       	movw	r22, r30
     d04:	8f e2       	ldi	r24, 0x2F	; 47
     d06:	90 e0       	ldi	r25, 0x00	; 0
     d08:	fc 01       	movw	r30, r24
     d0a:	e4 1b       	sub	r30, r20
     d0c:	f5 0b       	sbc	r31, r21
     d0e:	af 01       	movw	r20, r30
     d10:	06 c0       	rjmp	.+12     	; 0xd1e <_ZN16Adafruit_PCD85449drawPixelEiij+0x64>
     d12:	83 e5       	ldi	r24, 0x53	; 83
     d14:	90 e0       	ldi	r25, 0x00	; 0
     d16:	84 1b       	sub	r24, r20
     d18:	95 0b       	sbc	r25, r21
     d1a:	ab 01       	movw	r20, r22
     d1c:	bc 01       	movw	r22, r24
     d1e:	64 35       	cpi	r22, 0x54	; 84
     d20:	71 05       	cpc	r23, r1
     d22:	b0 f5       	brcc	.+108    	; 0xd90 <_ZN16Adafruit_PCD85449drawPixelEiij+0xd6>
     d24:	40 33       	cpi	r20, 0x30	; 48
     d26:	51 05       	cpc	r21, r1
     d28:	98 f5       	brcc	.+102    	; 0xd90 <_ZN16Adafruit_PCD85449drawPixelEiij+0xd6>
     d2a:	ca 01       	movw	r24, r20
     d2c:	e3 e0       	ldi	r30, 0x03	; 3
     d2e:	95 95       	asr	r25
     d30:	87 95       	ror	r24
     d32:	ea 95       	dec	r30
     d34:	e1 f7       	brne	.-8      	; 0xd2e <_ZN16Adafruit_PCD85449drawPixelEiij+0x74>
     d36:	47 70       	andi	r20, 0x07	; 7
     d38:	55 27       	eor	r21, r21
     d3a:	23 2b       	or	r18, r19
     d3c:	a1 f0       	breq	.+40     	; 0xd66 <_ZN16Adafruit_PCD85449drawPixelEiij+0xac>
     d3e:	24 e5       	ldi	r18, 0x54	; 84
     d40:	28 9f       	mul	r18, r24
     d42:	f0 01       	movw	r30, r0
     d44:	29 9f       	mul	r18, r25
     d46:	f0 0d       	add	r31, r0
     d48:	11 24       	eor	r1, r1
     d4a:	6e 0f       	add	r22, r30
     d4c:	7f 1f       	adc	r23, r31
     d4e:	fb 01       	movw	r30, r22
     d50:	ea 5f       	subi	r30, 0xFA	; 250
     d52:	fe 4f       	sbci	r31, 0xFE	; 254
     d54:	81 e0       	ldi	r24, 0x01	; 1
     d56:	90 e0       	ldi	r25, 0x00	; 0
     d58:	01 c0       	rjmp	.+2      	; 0xd5c <_ZN16Adafruit_PCD85449drawPixelEiij+0xa2>
     d5a:	88 0f       	add	r24, r24
     d5c:	4a 95       	dec	r20
     d5e:	ea f7       	brpl	.-6      	; 0xd5a <_ZN16Adafruit_PCD85449drawPixelEiij+0xa0>
     d60:	90 81       	ld	r25, Z
     d62:	89 2b       	or	r24, r25
     d64:	14 c0       	rjmp	.+40     	; 0xd8e <_ZN16Adafruit_PCD85449drawPixelEiij+0xd4>
     d66:	24 e5       	ldi	r18, 0x54	; 84
     d68:	28 9f       	mul	r18, r24
     d6a:	f0 01       	movw	r30, r0
     d6c:	29 9f       	mul	r18, r25
     d6e:	f0 0d       	add	r31, r0
     d70:	11 24       	eor	r1, r1
     d72:	6e 0f       	add	r22, r30
     d74:	7f 1f       	adc	r23, r31
     d76:	fb 01       	movw	r30, r22
     d78:	ea 5f       	subi	r30, 0xFA	; 250
     d7a:	fe 4f       	sbci	r31, 0xFE	; 254
     d7c:	81 e0       	ldi	r24, 0x01	; 1
     d7e:	90 e0       	ldi	r25, 0x00	; 0
     d80:	01 c0       	rjmp	.+2      	; 0xd84 <_ZN16Adafruit_PCD85449drawPixelEiij+0xca>
     d82:	88 0f       	add	r24, r24
     d84:	4a 95       	dec	r20
     d86:	ea f7       	brpl	.-6      	; 0xd82 <_ZN16Adafruit_PCD85449drawPixelEiij+0xc8>
     d88:	80 95       	com	r24
     d8a:	90 81       	ld	r25, Z
     d8c:	89 23       	and	r24, r25
     d8e:	80 83       	st	Z, r24
     d90:	08 95       	ret

00000d92 <_ZN16Adafruit_PCD8544C1Eaaa>:
     d92:	ff 92       	push	r15
     d94:	0f 93       	push	r16
     d96:	1f 93       	push	r17
     d98:	cf 93       	push	r28
     d9a:	df 93       	push	r29
     d9c:	ec 01       	movw	r28, r24
     d9e:	f6 2e       	mov	r15, r22
     da0:	14 2f       	mov	r17, r20
     da2:	02 2f       	mov	r16, r18
     da4:	40 e3       	ldi	r20, 0x30	; 48
     da6:	50 e0       	ldi	r21, 0x00	; 0
     da8:	64 e5       	ldi	r22, 0x54	; 84
     daa:	70 e0       	ldi	r23, 0x00	; 0
     dac:	0e 94 e8 04 	call	0x9d0	; 0x9d0 <_ZN12Adafruit_GFXC1Eii>
     db0:	8c e1       	ldi	r24, 0x1C	; 28
     db2:	93 e0       	ldi	r25, 0x03	; 3
     db4:	99 83       	std	Y+1, r25	; 0x01
     db6:	88 83       	st	Y, r24
     db8:	8f ef       	ldi	r24, 0xFF	; 255
     dba:	8f 8b       	std	Y+23, r24	; 0x17
     dbc:	88 8f       	std	Y+24, r24	; 0x18
     dbe:	f9 8e       	std	Y+25, r15	; 0x19
     dc0:	0a 8f       	std	Y+26, r16	; 0x1a
     dc2:	1b 8f       	std	Y+27, r17	; 0x1b
     dc4:	df 91       	pop	r29
     dc6:	cf 91       	pop	r28
     dc8:	1f 91       	pop	r17
     dca:	0f 91       	pop	r16
     dcc:	ff 90       	pop	r15
     dce:	08 95       	ret

00000dd0 <_ZN16Adafruit_PCD854413isHardwareSPIEv>:
     dd0:	fc 01       	movw	r30, r24
     dd2:	87 89       	ldd	r24, Z+23	; 0x17
     dd4:	8f 3f       	cpi	r24, 0xFF	; 255
     dd6:	21 f4       	brne	.+8      	; 0xde0 <_ZN16Adafruit_PCD854413isHardwareSPIEv+0x10>
     dd8:	81 e0       	ldi	r24, 0x01	; 1
     dda:	90 8d       	ldd	r25, Z+24	; 0x18
     ddc:	9f 3f       	cpi	r25, 0xFF	; 255
     dde:	09 f0       	breq	.+2      	; 0xde2 <_ZN16Adafruit_PCD854413isHardwareSPIEv+0x12>
     de0:	80 e0       	ldi	r24, 0x00	; 0
     de2:	08 95       	ret

00000de4 <_ZN16Adafruit_PCD85448spiWriteEh>:
     de4:	1f 93       	push	r17
     de6:	cf 93       	push	r28
     de8:	df 93       	push	r29
     dea:	ec 01       	movw	r28, r24
     dec:	16 2f       	mov	r17, r22
     dee:	0e 94 e8 06 	call	0xdd0	; 0xdd0 <_ZN16Adafruit_PCD854413isHardwareSPIEv>
     df2:	88 23       	and	r24, r24
     df4:	31 f0       	breq	.+12     	; 0xe02 <_ZN16Adafruit_PCD85448spiWriteEh+0x1e>
     df6:	1e bd       	out	0x2e, r17	; 46
     df8:	0d b4       	in	r0, 0x2d	; 45
     dfa:	07 fe       	sbrs	r0, 7
     dfc:	fd cf       	rjmp	.-6      	; 0xdf8 <_ZN16Adafruit_PCD85448spiWriteEh+0x14>
     dfe:	8e b5       	in	r24, 0x2e	; 46
     e00:	21 c0       	rjmp	.+66     	; 0xe44 <_ZN16Adafruit_PCD85448spiWriteEh+0x60>
     e02:	28 e0       	ldi	r18, 0x08	; 8
     e04:	30 e0       	ldi	r19, 0x00	; 0
     e06:	90 e8       	ldi	r25, 0x80	; 128
     e08:	ee 8d       	ldd	r30, Y+30	; 0x1e
     e0a:	ff 8d       	ldd	r31, Y+31	; 0x1f
     e0c:	40 81       	ld	r20, Z
     e0e:	89 a1       	ldd	r24, Y+33	; 0x21
     e10:	80 95       	com	r24
     e12:	84 23       	and	r24, r20
     e14:	80 83       	st	Z, r24
     e16:	ec 8d       	ldd	r30, Y+28	; 0x1c
     e18:	fd 8d       	ldd	r31, Y+29	; 0x1d
     e1a:	88 a1       	ldd	r24, Y+32	; 0x20
     e1c:	41 2f       	mov	r20, r17
     e1e:	49 23       	and	r20, r25
     e20:	19 f0       	breq	.+6      	; 0xe28 <_ZN16Adafruit_PCD85448spiWriteEh+0x44>
     e22:	40 81       	ld	r20, Z
     e24:	84 2b       	or	r24, r20
     e26:	03 c0       	rjmp	.+6      	; 0xe2e <_ZN16Adafruit_PCD85448spiWriteEh+0x4a>
     e28:	40 81       	ld	r20, Z
     e2a:	80 95       	com	r24
     e2c:	84 23       	and	r24, r20
     e2e:	80 83       	st	Z, r24
     e30:	ee 8d       	ldd	r30, Y+30	; 0x1e
     e32:	ff 8d       	ldd	r31, Y+31	; 0x1f
     e34:	40 81       	ld	r20, Z
     e36:	89 a1       	ldd	r24, Y+33	; 0x21
     e38:	84 2b       	or	r24, r20
     e3a:	80 83       	st	Z, r24
     e3c:	96 95       	lsr	r25
     e3e:	21 50       	subi	r18, 0x01	; 1
     e40:	31 09       	sbc	r19, r1
     e42:	11 f7       	brne	.-60     	; 0xe08 <_ZN16Adafruit_PCD85448spiWriteEh+0x24>
     e44:	df 91       	pop	r29
     e46:	cf 91       	pop	r28
     e48:	1f 91       	pop	r17
     e4a:	08 95       	ret

00000e4c <_ZN16Adafruit_PCD85447commandEh>:
     e4c:	1f 93       	push	r17
     e4e:	cf 93       	push	r28
     e50:	df 93       	push	r29
     e52:	ec 01       	movw	r28, r24
     e54:	16 2f       	mov	r17, r22
     e56:	60 e0       	ldi	r22, 0x00	; 0
     e58:	89 8d       	ldd	r24, Y+25	; 0x19
     e5a:	0e 94 2b 17 	call	0x2e56	; 0x2e56 <digitalWrite>
     e5e:	8b 8d       	ldd	r24, Y+27	; 0x1b
     e60:	18 16       	cp	r1, r24
     e62:	1c f4       	brge	.+6      	; 0xe6a <_ZN16Adafruit_PCD85447commandEh+0x1e>
     e64:	60 e0       	ldi	r22, 0x00	; 0
     e66:	0e 94 2b 17 	call	0x2e56	; 0x2e56 <digitalWrite>
     e6a:	61 2f       	mov	r22, r17
     e6c:	ce 01       	movw	r24, r28
     e6e:	0e 94 f2 06 	call	0xde4	; 0xde4 <_ZN16Adafruit_PCD85448spiWriteEh>
     e72:	8b 8d       	ldd	r24, Y+27	; 0x1b
     e74:	18 16       	cp	r1, r24
     e76:	34 f4       	brge	.+12     	; 0xe84 <_ZN16Adafruit_PCD85447commandEh+0x38>
     e78:	61 e0       	ldi	r22, 0x01	; 1
     e7a:	df 91       	pop	r29
     e7c:	cf 91       	pop	r28
     e7e:	1f 91       	pop	r17
     e80:	0c 94 2b 17 	jmp	0x2e56	; 0x2e56 <digitalWrite>
     e84:	df 91       	pop	r29
     e86:	cf 91       	pop	r28
     e88:	1f 91       	pop	r17
     e8a:	08 95       	ret

00000e8c <_ZN16Adafruit_PCD85447displayEv>:
     e8c:	cf 92       	push	r12
     e8e:	df 92       	push	r13
     e90:	ef 92       	push	r14
     e92:	ff 92       	push	r15
     e94:	0f 93       	push	r16
     e96:	1f 93       	push	r17
     e98:	cf 93       	push	r28
     e9a:	df 93       	push	r29
     e9c:	ec 01       	movw	r28, r24
     e9e:	86 e0       	ldi	r24, 0x06	; 6
     ea0:	e8 2e       	mov	r14, r24
     ea2:	81 e0       	ldi	r24, 0x01	; 1
     ea4:	f8 2e       	mov	r15, r24
     ea6:	10 e0       	ldi	r17, 0x00	; 0
     ea8:	61 2f       	mov	r22, r17
     eaa:	60 64       	ori	r22, 0x40	; 64
     eac:	ce 01       	movw	r24, r28
     eae:	0e 94 26 07 	call	0xe4c	; 0xe4c <_ZN16Adafruit_PCD85447commandEh>
     eb2:	60 e8       	ldi	r22, 0x80	; 128
     eb4:	ce 01       	movw	r24, r28
     eb6:	0e 94 26 07 	call	0xe4c	; 0xe4c <_ZN16Adafruit_PCD85447commandEh>
     eba:	61 e0       	ldi	r22, 0x01	; 1
     ebc:	89 8d       	ldd	r24, Y+25	; 0x19
     ebe:	0e 94 2b 17 	call	0x2e56	; 0x2e56 <digitalWrite>
     ec2:	8b 8d       	ldd	r24, Y+27	; 0x1b
     ec4:	18 16       	cp	r1, r24
     ec6:	1c f4       	brge	.+6      	; 0xece <_ZN16Adafruit_PCD85447displayEv+0x42>
     ec8:	60 e0       	ldi	r22, 0x00	; 0
     eca:	0e 94 2b 17 	call	0x2e56	; 0x2e56 <digitalWrite>
     ece:	67 01       	movw	r12, r14
     ed0:	04 e5       	ldi	r16, 0x54	; 84
     ed2:	f6 01       	movw	r30, r12
     ed4:	61 91       	ld	r22, Z+
     ed6:	6f 01       	movw	r12, r30
     ed8:	ce 01       	movw	r24, r28
     eda:	0e 94 f2 06 	call	0xde4	; 0xde4 <_ZN16Adafruit_PCD85448spiWriteEh>
     ede:	01 50       	subi	r16, 0x01	; 1
     ee0:	c1 f7       	brne	.-16     	; 0xed2 <_ZN16Adafruit_PCD85447displayEv+0x46>
     ee2:	8b 8d       	ldd	r24, Y+27	; 0x1b
     ee4:	18 16       	cp	r1, r24
     ee6:	1c f4       	brge	.+6      	; 0xeee <_ZN16Adafruit_PCD85447displayEv+0x62>
     ee8:	61 e0       	ldi	r22, 0x01	; 1
     eea:	0e 94 2b 17 	call	0x2e56	; 0x2e56 <digitalWrite>
     eee:	1f 5f       	subi	r17, 0xFF	; 255
     ef0:	f4 e5       	ldi	r31, 0x54	; 84
     ef2:	ef 0e       	add	r14, r31
     ef4:	f1 1c       	adc	r15, r1
     ef6:	16 30       	cpi	r17, 0x06	; 6
     ef8:	b9 f6       	brne	.-82     	; 0xea8 <_ZN16Adafruit_PCD85447displayEv+0x1c>
     efa:	60 e4       	ldi	r22, 0x40	; 64
     efc:	ce 01       	movw	r24, r28
     efe:	df 91       	pop	r29
     f00:	cf 91       	pop	r28
     f02:	1f 91       	pop	r17
     f04:	0f 91       	pop	r16
     f06:	ff 90       	pop	r15
     f08:	ef 90       	pop	r14
     f0a:	df 90       	pop	r13
     f0c:	cf 90       	pop	r12
     f0e:	0c 94 26 07 	jmp	0xe4c	; 0xe4c <_ZN16Adafruit_PCD85447commandEh>

00000f12 <_ZN16Adafruit_PCD85445beginEhh>:
     f12:	0f 93       	push	r16
     f14:	1f 93       	push	r17
     f16:	cf 93       	push	r28
     f18:	df 93       	push	r29
     f1a:	ec 01       	movw	r28, r24
     f1c:	16 2f       	mov	r17, r22
     f1e:	04 2f       	mov	r16, r20
     f20:	0e 94 e8 06 	call	0xdd0	; 0xdd0 <_ZN16Adafruit_PCD854413isHardwareSPIEv>
     f24:	88 23       	and	r24, r24
     f26:	61 f0       	breq	.+24     	; 0xf40 <_ZN16Adafruit_PCD85445beginEhh+0x2e>
     f28:	0e 94 ae 15 	call	0x2b5c	; 0x2b5c <_ZN8SPIClass5beginEv>
     f2c:	80 e0       	ldi	r24, 0x00	; 0
     f2e:	0e 94 db 15 	call	0x2bb6	; 0x2bb6 <_ZN8SPIClass15setClockDividerEh>
     f32:	80 e0       	ldi	r24, 0x00	; 0
     f34:	0e 94 d6 15 	call	0x2bac	; 0x2bac <_ZN8SPIClass11setDataModeEh>
     f38:	81 e0       	ldi	r24, 0x01	; 1
     f3a:	0e 94 cd 15 	call	0x2b9a	; 0x2b9a <_ZN8SPIClass11setBitOrderEh>
     f3e:	34 c0       	rjmp	.+104    	; 0xfa8 <_ZN16Adafruit_PCD85445beginEhh+0x96>
     f40:	61 e0       	ldi	r22, 0x01	; 1
     f42:	8f 89       	ldd	r24, Y+23	; 0x17
     f44:	0e 94 ef 16 	call	0x2dde	; 0x2dde <pinMode>
     f48:	61 e0       	ldi	r22, 0x01	; 1
     f4a:	88 8d       	ldd	r24, Y+24	; 0x18
     f4c:	0e 94 ef 16 	call	0x2dde	; 0x2dde <pinMode>
     f50:	88 8d       	ldd	r24, Y+24	; 0x18
     f52:	08 2e       	mov	r0, r24
     f54:	00 0c       	add	r0, r0
     f56:	99 0b       	sbc	r25, r25
     f58:	fc 01       	movw	r30, r24
     f5a:	e3 5b       	subi	r30, 0xB3	; 179
     f5c:	f9 4f       	sbci	r31, 0xF9	; 249
     f5e:	e4 91       	lpm	r30, Z
     f60:	f0 e0       	ldi	r31, 0x00	; 0
     f62:	ee 0f       	add	r30, r30
     f64:	ff 1f       	adc	r31, r31
     f66:	ef 59       	subi	r30, 0x9F	; 159
     f68:	f9 4f       	sbci	r31, 0xF9	; 249
     f6a:	25 91       	lpm	r18, Z+
     f6c:	34 91       	lpm	r19, Z
     f6e:	3f 8f       	std	Y+31, r19	; 0x1f
     f70:	2e 8f       	std	Y+30, r18	; 0x1e
     f72:	fc 01       	movw	r30, r24
     f74:	e7 5c       	subi	r30, 0xC7	; 199
     f76:	f9 4f       	sbci	r31, 0xF9	; 249
     f78:	e4 91       	lpm	r30, Z
     f7a:	e9 a3       	std	Y+33, r30	; 0x21
     f7c:	8f 89       	ldd	r24, Y+23	; 0x17
     f7e:	08 2e       	mov	r0, r24
     f80:	00 0c       	add	r0, r0
     f82:	99 0b       	sbc	r25, r25
     f84:	fc 01       	movw	r30, r24
     f86:	e3 5b       	subi	r30, 0xB3	; 179
     f88:	f9 4f       	sbci	r31, 0xF9	; 249
     f8a:	e4 91       	lpm	r30, Z
     f8c:	f0 e0       	ldi	r31, 0x00	; 0
     f8e:	ee 0f       	add	r30, r30
     f90:	ff 1f       	adc	r31, r31
     f92:	ef 59       	subi	r30, 0x9F	; 159
     f94:	f9 4f       	sbci	r31, 0xF9	; 249
     f96:	25 91       	lpm	r18, Z+
     f98:	34 91       	lpm	r19, Z
     f9a:	3d 8f       	std	Y+29, r19	; 0x1d
     f9c:	2c 8f       	std	Y+28, r18	; 0x1c
     f9e:	fc 01       	movw	r30, r24
     fa0:	e7 5c       	subi	r30, 0xC7	; 199
     fa2:	f9 4f       	sbci	r31, 0xF9	; 249
     fa4:	e4 91       	lpm	r30, Z
     fa6:	e8 a3       	std	Y+32, r30	; 0x20
     fa8:	61 e0       	ldi	r22, 0x01	; 1
     faa:	89 8d       	ldd	r24, Y+25	; 0x19
     fac:	0e 94 ef 16 	call	0x2dde	; 0x2dde <pinMode>
     fb0:	8a 8d       	ldd	r24, Y+26	; 0x1a
     fb2:	18 16       	cp	r1, r24
     fb4:	1c f4       	brge	.+6      	; 0xfbc <_ZN16Adafruit_PCD85445beginEhh+0xaa>
     fb6:	61 e0       	ldi	r22, 0x01	; 1
     fb8:	0e 94 ef 16 	call	0x2dde	; 0x2dde <pinMode>
     fbc:	8b 8d       	ldd	r24, Y+27	; 0x1b
     fbe:	18 16       	cp	r1, r24
     fc0:	1c f4       	brge	.+6      	; 0xfc8 <_ZN16Adafruit_PCD85445beginEhh+0xb6>
     fc2:	61 e0       	ldi	r22, 0x01	; 1
     fc4:	0e 94 ef 16 	call	0x2dde	; 0x2dde <pinMode>
     fc8:	8a 8d       	ldd	r24, Y+26	; 0x1a
     fca:	18 16       	cp	r1, r24
     fcc:	84 f4       	brge	.+32     	; 0xfee <_ZN16Adafruit_PCD85445beginEhh+0xdc>
     fce:	60 e0       	ldi	r22, 0x00	; 0
     fd0:	0e 94 2b 17 	call	0x2e56	; 0x2e56 <digitalWrite>
     fd4:	2f ef       	ldi	r18, 0xFF	; 255
     fd6:	89 e6       	ldi	r24, 0x69	; 105
     fd8:	98 e1       	ldi	r25, 0x18	; 24
     fda:	21 50       	subi	r18, 0x01	; 1
     fdc:	80 40       	sbci	r24, 0x00	; 0
     fde:	90 40       	sbci	r25, 0x00	; 0
     fe0:	e1 f7       	brne	.-8      	; 0xfda <_ZN16Adafruit_PCD85445beginEhh+0xc8>
     fe2:	00 c0       	rjmp	.+0      	; 0xfe4 <_ZN16Adafruit_PCD85445beginEhh+0xd2>
     fe4:	00 00       	nop
     fe6:	61 e0       	ldi	r22, 0x01	; 1
     fe8:	8a 8d       	ldd	r24, Y+26	; 0x1a
     fea:	0e 94 2b 17 	call	0x2e56	; 0x2e56 <digitalWrite>
     fee:	61 e2       	ldi	r22, 0x21	; 33
     ff0:	ce 01       	movw	r24, r28
     ff2:	0e 94 26 07 	call	0xe4c	; 0xe4c <_ZN16Adafruit_PCD85447commandEh>
     ff6:	60 2f       	mov	r22, r16
     ff8:	60 61       	ori	r22, 0x10	; 16
     ffa:	ce 01       	movw	r24, r28
     ffc:	0e 94 26 07 	call	0xe4c	; 0xe4c <_ZN16Adafruit_PCD85447commandEh>
    1000:	17 fd       	sbrc	r17, 7
    1002:	1f e7       	ldi	r17, 0x7F	; 127
    1004:	61 2f       	mov	r22, r17
    1006:	60 68       	ori	r22, 0x80	; 128
    1008:	ce 01       	movw	r24, r28
    100a:	0e 94 26 07 	call	0xe4c	; 0xe4c <_ZN16Adafruit_PCD85447commandEh>
    100e:	60 e2       	ldi	r22, 0x20	; 32
    1010:	ce 01       	movw	r24, r28
    1012:	0e 94 26 07 	call	0xe4c	; 0xe4c <_ZN16Adafruit_PCD85447commandEh>
    1016:	6c e0       	ldi	r22, 0x0C	; 12
    1018:	ce 01       	movw	r24, r28
    101a:	0e 94 26 07 	call	0xe4c	; 0xe4c <_ZN16Adafruit_PCD85447commandEh>
    101e:	ce 01       	movw	r24, r28
    1020:	df 91       	pop	r29
    1022:	cf 91       	pop	r28
    1024:	1f 91       	pop	r17
    1026:	0f 91       	pop	r16
    1028:	0c 94 46 07 	jmp	0xe8c	; 0xe8c <_ZN16Adafruit_PCD85447displayEv>

0000102c <_ZN16Adafruit_PCD854412clearDisplayEv>:
    102c:	28 ef       	ldi	r18, 0xF8	; 248
    102e:	31 e0       	ldi	r19, 0x01	; 1
    1030:	e6 e0       	ldi	r30, 0x06	; 6
    1032:	f1 e0       	ldi	r31, 0x01	; 1
    1034:	df 01       	movw	r26, r30
    1036:	a9 01       	movw	r20, r18
    1038:	1d 92       	st	X+, r1
    103a:	41 50       	subi	r20, 0x01	; 1
    103c:	50 40       	sbci	r21, 0x00	; 0
    103e:	e1 f7       	brne	.-8      	; 0x1038 <_ZN16Adafruit_PCD854412clearDisplayEv+0xc>
    1040:	dc 01       	movw	r26, r24
    1042:	1d 96       	adiw	r26, 0x0d	; 13
    1044:	1c 92       	st	X, r1
    1046:	1e 92       	st	-X, r1
    1048:	1c 97       	sbiw	r26, 0x0c	; 12
    104a:	1f 96       	adiw	r26, 0x0f	; 15
    104c:	1c 92       	st	X, r1
    104e:	1e 92       	st	-X, r1
    1050:	1e 97       	sbiw	r26, 0x0e	; 14
    1052:	08 95       	ret

00001054 <_ZN16Adafruit_ADS1115C1Eh>:
    1054:	fc 01       	movw	r30, r24
    1056:	14 82       	std	Z+4, r1	; 0x04
    1058:	13 82       	std	Z+3, r1	; 0x03
    105a:	60 83       	st	Z, r22
    105c:	88 e0       	ldi	r24, 0x08	; 8
    105e:	81 83       	std	Z+1, r24	; 0x01
    1060:	12 82       	std	Z+2, r1	; 0x02
    1062:	08 95       	ret

00001064 <_ZN6INA2605beginEh>:
    1064:	fc 01       	movw	r30, r24
    1066:	60 83       	st	Z, r22
    1068:	81 e0       	ldi	r24, 0x01	; 1
    106a:	08 95       	ret

0000106c <_ZN6INA26014readRegister16Eh>:
    106c:	cf 93       	push	r28
    106e:	df 93       	push	r29
    1070:	00 d0       	rcall	.+0      	; 0x1072 <_ZN6INA26014readRegister16Eh+0x6>
    1072:	cd b7       	in	r28, 0x3d	; 61
    1074:	de b7       	in	r29, 0x3e	; 62
    1076:	1a 82       	std	Y+2, r1	; 0x02
    1078:	19 82       	std	Y+1, r1	; 0x01
    107a:	22 e0       	ldi	r18, 0x02	; 2
    107c:	ae 01       	movw	r20, r28
    107e:	4f 5f       	subi	r20, 0xFF	; 255
    1080:	5f 4f       	sbci	r21, 0xFF	; 255
    1082:	fc 01       	movw	r30, r24
    1084:	80 81       	ld	r24, Z
    1086:	0e 94 49 13 	call	0x2692	; 0x2692 <_Z8i2c_readhhPhh>
    108a:	89 81       	ldd	r24, Y+1	; 0x01
    108c:	9a 81       	ldd	r25, Y+2	; 0x02
    108e:	98 27       	eor	r25, r24
    1090:	89 27       	eor	r24, r25
    1092:	98 27       	eor	r25, r24
    1094:	0f 90       	pop	r0
    1096:	0f 90       	pop	r0
    1098:	df 91       	pop	r29
    109a:	cf 91       	pop	r28
    109c:	08 95       	ret

0000109e <_ZN6INA26016readShuntCurrentEv>:
    109e:	cf 93       	push	r28
    10a0:	df 93       	push	r29
    10a2:	ec 01       	movw	r28, r24
    10a4:	61 e0       	ldi	r22, 0x01	; 1
    10a6:	0e 94 36 08 	call	0x106c	; 0x106c <_ZN6INA26014readRegister16Eh>
    10aa:	bc 01       	movw	r22, r24
    10ac:	99 0f       	add	r25, r25
    10ae:	88 0b       	sbc	r24, r24
    10b0:	99 0b       	sbc	r25, r25
    10b2:	0e 94 76 18 	call	0x30ec	; 0x30ec <__floatsisf>
    10b6:	29 81       	ldd	r18, Y+1	; 0x01
    10b8:	3a 81       	ldd	r19, Y+2	; 0x02
    10ba:	4b 81       	ldd	r20, Y+3	; 0x03
    10bc:	5c 81       	ldd	r21, Y+4	; 0x04
    10be:	0e 94 26 19 	call	0x324c	; 0x324c <__mulsf3>
    10c2:	df 91       	pop	r29
    10c4:	cf 91       	pop	r28
    10c6:	08 95       	ret

000010c8 <_ZN6INA26014readBusVoltageEv>:
    10c8:	cf 93       	push	r28
    10ca:	df 93       	push	r29
    10cc:	ec 01       	movw	r28, r24
    10ce:	62 e0       	ldi	r22, 0x02	; 2
    10d0:	0e 94 36 08 	call	0x106c	; 0x106c <_ZN6INA26014readRegister16Eh>
    10d4:	bc 01       	movw	r22, r24
    10d6:	99 0f       	add	r25, r25
    10d8:	88 0b       	sbc	r24, r24
    10da:	99 0b       	sbc	r25, r25
    10dc:	0e 94 76 18 	call	0x30ec	; 0x30ec <__floatsisf>
    10e0:	29 85       	ldd	r18, Y+9	; 0x09
    10e2:	3a 85       	ldd	r19, Y+10	; 0x0a
    10e4:	4b 85       	ldd	r20, Y+11	; 0x0b
    10e6:	5c 85       	ldd	r21, Y+12	; 0x0c
    10e8:	0e 94 26 19 	call	0x324c	; 0x324c <__mulsf3>
    10ec:	df 91       	pop	r29
    10ee:	cf 91       	pop	r28
    10f0:	08 95       	ret

000010f2 <_ZN6INA26015writeRegister16Ehj>:
    10f2:	cf 93       	push	r28
    10f4:	df 93       	push	r29
    10f6:	00 d0       	rcall	.+0      	; 0x10f8 <_ZN6INA26015writeRegister16Ehj+0x6>
    10f8:	cd b7       	in	r28, 0x3d	; 61
    10fa:	de b7       	in	r29, 0x3e	; 62
    10fc:	4a 83       	std	Y+2, r20	; 0x02
    10fe:	59 83       	std	Y+1, r21	; 0x01
    1100:	22 e0       	ldi	r18, 0x02	; 2
    1102:	ae 01       	movw	r20, r28
    1104:	4f 5f       	subi	r20, 0xFF	; 255
    1106:	5f 4f       	sbci	r21, 0xFF	; 255
    1108:	fc 01       	movw	r30, r24
    110a:	80 81       	ld	r24, Z
    110c:	0e 94 20 13 	call	0x2640	; 0x2640 <_Z9i2c_writehhPhh>
    1110:	0f 90       	pop	r0
    1112:	0f 90       	pop	r0
    1114:	df 91       	pop	r29
    1116:	cf 91       	pop	r28
    1118:	08 95       	ret

0000111a <_ZN6INA2609configureE17INA260_averages_t20INA260_busConvTime_t22INA260_shuntConvTime_t13INA260_mode_t>:
    111a:	cf 92       	push	r12
    111c:	df 92       	push	r13
    111e:	ef 92       	push	r14
    1120:	ff 92       	push	r15
    1122:	0f 93       	push	r16
    1124:	fc 01       	movw	r30, r24
    1126:	84 2f       	mov	r24, r20
    1128:	c1 2c       	mov	r12, r1
    112a:	d1 2c       	mov	r13, r1
    112c:	90 e1       	ldi	r25, 0x10	; 16
    112e:	e9 2e       	mov	r14, r25
    1130:	92 e4       	ldi	r25, 0x42	; 66
    1132:	f9 2e       	mov	r15, r25
    1134:	c1 8a       	std	Z+17, r12	; 0x11
    1136:	d2 8a       	std	Z+18, r13	; 0x12
    1138:	e3 8a       	std	Z+19, r14	; 0x13
    113a:	f4 8a       	std	Z+20, r15	; 0x14
    113c:	c1 2c       	mov	r12, r1
    113e:	d1 2c       	mov	r13, r1
    1140:	30 e7       	ldi	r19, 0x70	; 112
    1142:	e3 2e       	mov	r14, r19
    1144:	31 e4       	ldi	r19, 0x41	; 65
    1146:	f3 2e       	mov	r15, r19
    1148:	c5 86       	std	Z+13, r12	; 0x0d
    114a:	d6 86       	std	Z+14, r13	; 0x0e
    114c:	e7 86       	std	Z+15, r14	; 0x0f
    114e:	f0 8a       	std	Z+16, r15	; 0x10
    1150:	4a e0       	ldi	r20, 0x0A	; 10
    1152:	c4 2e       	mov	r12, r20
    1154:	47 ed       	ldi	r20, 0xD7	; 215
    1156:	d4 2e       	mov	r13, r20
    1158:	43 ea       	ldi	r20, 0xA3	; 163
    115a:	e4 2e       	mov	r14, r20
    115c:	4a e3       	ldi	r20, 0x3A	; 58
    115e:	f4 2e       	mov	r15, r20
    1160:	c1 82       	std	Z+1, r12	; 0x01
    1162:	d2 82       	std	Z+2, r13	; 0x02
    1164:	e3 82       	std	Z+3, r14	; 0x03
    1166:	f4 82       	std	Z+4, r15	; 0x04
    1168:	c1 86       	std	Z+9, r12	; 0x09
    116a:	d2 86       	std	Z+10, r13	; 0x0a
    116c:	e3 86       	std	Z+11, r14	; 0x0b
    116e:	f4 86       	std	Z+12, r15	; 0x0c
    1170:	5a e0       	ldi	r21, 0x0A	; 10
    1172:	c5 2e       	mov	r12, r21
    1174:	57 ed       	ldi	r21, 0xD7	; 215
    1176:	d5 2e       	mov	r13, r21
    1178:	53 e2       	ldi	r21, 0x23	; 35
    117a:	e5 2e       	mov	r14, r21
    117c:	5c e3       	ldi	r21, 0x3C	; 60
    117e:	f5 2e       	mov	r15, r21
    1180:	c5 82       	std	Z+5, r12	; 0x05
    1182:	d6 82       	std	Z+6, r13	; 0x06
    1184:	e7 82       	std	Z+7, r14	; 0x07
    1186:	f0 86       	std	Z+8, r15	; 0x08
    1188:	98 e0       	ldi	r25, 0x08	; 8
    118a:	29 9f       	mul	r18, r25
    118c:	a0 01       	movw	r20, r0
    118e:	11 24       	eor	r1, r1
    1190:	40 2b       	or	r20, r16
    1192:	20 e4       	ldi	r18, 0x40	; 64
    1194:	82 9f       	mul	r24, r18
    1196:	c0 01       	movw	r24, r0
    1198:	11 24       	eor	r1, r1
    119a:	48 2b       	or	r20, r24
    119c:	59 2b       	or	r21, r25
    119e:	70 e0       	ldi	r23, 0x00	; 0
    11a0:	76 2f       	mov	r23, r22
    11a2:	66 27       	eor	r22, r22
    11a4:	77 0f       	add	r23, r23
    11a6:	46 2b       	or	r20, r22
    11a8:	57 2b       	or	r21, r23
    11aa:	60 e0       	ldi	r22, 0x00	; 0
    11ac:	cf 01       	movw	r24, r30
    11ae:	0e 94 79 08 	call	0x10f2	; 0x10f2 <_ZN6INA26015writeRegister16Ehj>
    11b2:	81 e0       	ldi	r24, 0x01	; 1
    11b4:	0f 91       	pop	r16
    11b6:	ff 90       	pop	r15
    11b8:	ef 90       	pop	r14
    11ba:	df 90       	pop	r13
    11bc:	cf 90       	pop	r12
    11be:	08 95       	ret

000011c0 <_Z13displayUpdateff>:
    11c0:	8f 92       	push	r8
    11c2:	9f 92       	push	r9
    11c4:	af 92       	push	r10
    11c6:	bf 92       	push	r11
    11c8:	cf 92       	push	r12
    11ca:	df 92       	push	r13
    11cc:	ef 92       	push	r14
    11ce:	ff 92       	push	r15
    11d0:	0f 93       	push	r16
    11d2:	1f 93       	push	r17
    11d4:	6b 01       	movw	r12, r22
    11d6:	7c 01       	movw	r14, r24
    11d8:	49 01       	movw	r8, r18
    11da:	5a 01       	movw	r10, r20
    11dc:	0e 94 34 16 	call	0x2c68	; 0x2c68 <millis>
    11e0:	00 91 34 04 	lds	r16, 0x0434	; 0x800434 <__data_end>
    11e4:	10 91 35 04 	lds	r17, 0x0435	; 0x800435 <__data_end+0x1>
    11e8:	20 91 36 04 	lds	r18, 0x0436	; 0x800436 <__data_end+0x2>
    11ec:	30 91 37 04 	lds	r19, 0x0437	; 0x800437 <__data_end+0x3>
    11f0:	dc 01       	movw	r26, r24
    11f2:	cb 01       	movw	r24, r22
    11f4:	80 1b       	sub	r24, r16
    11f6:	91 0b       	sbc	r25, r17
    11f8:	a2 0b       	sbc	r26, r18
    11fa:	b3 0b       	sbc	r27, r19
    11fc:	85 36       	cpi	r24, 0x65	; 101
    11fe:	91 05       	cpc	r25, r1
    1200:	a1 05       	cpc	r26, r1
    1202:	b1 05       	cpc	r27, r1
    1204:	08 f4       	brcc	.+2      	; 0x1208 <_Z13displayUpdateff+0x48>
    1206:	80 c0       	rjmp	.+256    	; 0x1308 <_Z13displayUpdateff+0x148>
    1208:	8c e3       	ldi	r24, 0x3C	; 60
    120a:	94 e0       	ldi	r25, 0x04	; 4
    120c:	0e 94 16 08 	call	0x102c	; 0x102c <_ZN16Adafruit_PCD854412clearDisplayEv>
    1210:	62 e0       	ldi	r22, 0x02	; 2
    1212:	8c e3       	ldi	r24, 0x3C	; 60
    1214:	94 e0       	ldi	r25, 0x04	; 4
    1216:	0e 94 48 06 	call	0xc90	; 0xc90 <_ZN12Adafruit_GFX11setRotationEh>
    121a:	61 e0       	ldi	r22, 0x01	; 1
    121c:	8c e3       	ldi	r24, 0x3C	; 60
    121e:	94 e0       	ldi	r25, 0x04	; 4
    1220:	0e 94 45 06 	call	0xc8a	; 0xc8a <_ZN12Adafruit_GFX11setTextWrapEh>
    1224:	61 e0       	ldi	r22, 0x01	; 1
    1226:	8c e3       	ldi	r24, 0x3C	; 60
    1228:	94 e0       	ldi	r25, 0x04	; 4
    122a:	0e 94 33 06 	call	0xc66	; 0xc66 <_ZN12Adafruit_GFX11setTextSizeEh>
    122e:	41 e0       	ldi	r20, 0x01	; 1
    1230:	50 e0       	ldi	r21, 0x00	; 0
    1232:	60 e0       	ldi	r22, 0x00	; 0
    1234:	70 e0       	ldi	r23, 0x00	; 0
    1236:	8c e3       	ldi	r24, 0x3C	; 60
    1238:	94 e0       	ldi	r25, 0x04	; 4
    123a:	0e 94 3f 06 	call	0xc7e	; 0xc7e <_ZN12Adafruit_GFX12setTextColorEjj>
    123e:	69 ee       	ldi	r22, 0xE9	; 233
    1240:	75 e0       	ldi	r23, 0x05	; 5
    1242:	8c e3       	ldi	r24, 0x3C	; 60
    1244:	94 e0       	ldi	r25, 0x04	; 4
    1246:	0e 94 c1 13 	call	0x2782	; 0x2782 <_ZN5Print5printEPK19__FlashStringHelper>
    124a:	23 e0       	ldi	r18, 0x03	; 3
    124c:	30 e0       	ldi	r19, 0x00	; 0
    124e:	b5 01       	movw	r22, r10
    1250:	a4 01       	movw	r20, r8
    1252:	8c e3       	ldi	r24, 0x3C	; 60
    1254:	94 e0       	ldi	r25, 0x04	; 4
    1256:	0e 94 9a 15 	call	0x2b34	; 0x2b34 <_ZN5Print5printEdi>
    125a:	60 e3       	ldi	r22, 0x30	; 48
    125c:	73 e0       	ldi	r23, 0x03	; 3
    125e:	8c e3       	ldi	r24, 0x3C	; 60
    1260:	94 e0       	ldi	r25, 0x04	; 4
    1262:	0e 94 13 14 	call	0x2826	; 0x2826 <_ZN5Print7printlnEPKc>
    1266:	63 ee       	ldi	r22, 0xE3	; 227
    1268:	75 e0       	ldi	r23, 0x05	; 5
    126a:	8c e3       	ldi	r24, 0x3C	; 60
    126c:	94 e0       	ldi	r25, 0x04	; 4
    126e:	0e 94 c1 13 	call	0x2782	; 0x2782 <_ZN5Print5printEPK19__FlashStringHelper>
    1272:	23 e0       	ldi	r18, 0x03	; 3
    1274:	30 e0       	ldi	r19, 0x00	; 0
    1276:	b7 01       	movw	r22, r14
    1278:	a6 01       	movw	r20, r12
    127a:	8c e3       	ldi	r24, 0x3C	; 60
    127c:	94 e0       	ldi	r25, 0x04	; 4
    127e:	0e 94 9a 15 	call	0x2b34	; 0x2b34 <_ZN5Print5printEdi>
    1282:	62 e3       	ldi	r22, 0x32	; 50
    1284:	73 e0       	ldi	r23, 0x03	; 3
    1286:	8c e3       	ldi	r24, 0x3C	; 60
    1288:	94 e0       	ldi	r25, 0x04	; 4
    128a:	0e 94 13 14 	call	0x2826	; 0x2826 <_ZN5Print7printlnEPKc>
    128e:	61 e0       	ldi	r22, 0x01	; 1
    1290:	70 e0       	ldi	r23, 0x00	; 0
    1292:	8c e3       	ldi	r24, 0x3C	; 60
    1294:	94 e0       	ldi	r25, 0x04	; 4
    1296:	0e 94 39 06 	call	0xc72	; 0xc72 <_ZN12Adafruit_GFX12setTextColorEj>
    129a:	62 e0       	ldi	r22, 0x02	; 2
    129c:	8c e3       	ldi	r24, 0x3C	; 60
    129e:	94 e0       	ldi	r25, 0x04	; 4
    12a0:	0e 94 33 06 	call	0xc66	; 0xc66 <_ZN12Adafruit_GFX11setTextSizeEh>
    12a4:	83 e6       	ldi	r24, 0x63	; 99
    12a6:	94 e0       	ldi	r25, 0x04	; 4
    12a8:	0e 94 64 08 	call	0x10c8	; 0x10c8 <_ZN6INA26014readBusVoltageEv>
    12ac:	ab 01       	movw	r20, r22
    12ae:	bc 01       	movw	r22, r24
    12b0:	22 e0       	ldi	r18, 0x02	; 2
    12b2:	30 e0       	ldi	r19, 0x00	; 0
    12b4:	8c e3       	ldi	r24, 0x3C	; 60
    12b6:	94 e0       	ldi	r25, 0x04	; 4
    12b8:	0e 94 9a 15 	call	0x2b34	; 0x2b34 <_ZN5Print5printEdi>
    12bc:	62 e3       	ldi	r22, 0x32	; 50
    12be:	73 e0       	ldi	r23, 0x03	; 3
    12c0:	8c e3       	ldi	r24, 0x3C	; 60
    12c2:	94 e0       	ldi	r25, 0x04	; 4
    12c4:	0e 94 13 14 	call	0x2826	; 0x2826 <_ZN5Print7printlnEPKc>
    12c8:	83 e6       	ldi	r24, 0x63	; 99
    12ca:	94 e0       	ldi	r25, 0x04	; 4
    12cc:	0e 94 4f 08 	call	0x109e	; 0x109e <_ZN6INA26016readShuntCurrentEv>
    12d0:	ab 01       	movw	r20, r22
    12d2:	bc 01       	movw	r22, r24
    12d4:	23 e0       	ldi	r18, 0x03	; 3
    12d6:	30 e0       	ldi	r19, 0x00	; 0
    12d8:	8c e3       	ldi	r24, 0x3C	; 60
    12da:	94 e0       	ldi	r25, 0x04	; 4
    12dc:	0e 94 9a 15 	call	0x2b34	; 0x2b34 <_ZN5Print5printEdi>
    12e0:	60 e3       	ldi	r22, 0x30	; 48
    12e2:	73 e0       	ldi	r23, 0x03	; 3
    12e4:	8c e3       	ldi	r24, 0x3C	; 60
    12e6:	94 e0       	ldi	r25, 0x04	; 4
    12e8:	0e 94 13 14 	call	0x2826	; 0x2826 <_ZN5Print7printlnEPKc>
    12ec:	8c e3       	ldi	r24, 0x3C	; 60
    12ee:	94 e0       	ldi	r25, 0x04	; 4
    12f0:	0e 94 46 07 	call	0xe8c	; 0xe8c <_ZN16Adafruit_PCD85447displayEv>
    12f4:	0e 94 34 16 	call	0x2c68	; 0x2c68 <millis>
    12f8:	60 93 34 04 	sts	0x0434, r22	; 0x800434 <__data_end>
    12fc:	70 93 35 04 	sts	0x0435, r23	; 0x800435 <__data_end+0x1>
    1300:	80 93 36 04 	sts	0x0436, r24	; 0x800436 <__data_end+0x2>
    1304:	90 93 37 04 	sts	0x0437, r25	; 0x800437 <__data_end+0x3>
    1308:	1f 91       	pop	r17
    130a:	0f 91       	pop	r16
    130c:	ff 90       	pop	r15
    130e:	ef 90       	pop	r14
    1310:	df 90       	pop	r13
    1312:	cf 90       	pop	r12
    1314:	bf 90       	pop	r11
    1316:	af 90       	pop	r10
    1318:	9f 90       	pop	r9
    131a:	8f 90       	pop	r8
    131c:	08 95       	ret

0000131e <_Z10setVoltagej>:
    131e:	8f 92       	push	r8
    1320:	9f 92       	push	r9
    1322:	af 92       	push	r10
    1324:	bf 92       	push	r11
    1326:	cf 92       	push	r12
    1328:	df 92       	push	r13
    132a:	ef 92       	push	r14
    132c:	ff 92       	push	r15
    132e:	cf 93       	push	r28
    1330:	df 93       	push	r29
    1332:	00 d0       	rcall	.+0      	; 0x1334 <_Z10setVoltagej+0x16>
    1334:	cd b7       	in	r28, 0x3d	; 61
    1336:	de b7       	in	r29, 0x3e	; 62
    1338:	9c 01       	movw	r18, r24
    133a:	28 57       	subi	r18, 0x78	; 120
    133c:	35 40       	sbci	r19, 0x05	; 5
    133e:	29 3d       	cpi	r18, 0xD9	; 217
    1340:	30 44       	sbci	r19, 0x40	; 64
    1342:	40 f0       	brcs	.+16     	; 0x1354 <_Z10setVoltagej+0x36>
    1344:	64 ea       	ldi	r22, 0xA4	; 164
    1346:	75 e0       	ldi	r23, 0x05	; 5
    1348:	81 e8       	ldi	r24, 0x81	; 129
    134a:	94 e0       	ldi	r25, 0x04	; 4
    134c:	0e 94 01 14 	call	0x2802	; 0x2802 <_ZN5Print7printlnEPK19__FlashStringHelper>
    1350:	80 e0       	ldi	r24, 0x00	; 0
    1352:	b4 c0       	rjmp	.+360    	; 0x14bc <_Z10setVoltagej+0x19e>
    1354:	9c 01       	movw	r18, r24
    1356:	a1 e1       	ldi	r26, 0x11	; 17
    1358:	b0 e0       	ldi	r27, 0x00	; 0
    135a:	0e 94 b5 19 	call	0x336a	; 0x336a <__umulhisi3>
    135e:	0e 94 74 18 	call	0x30e8	; 0x30e8 <__floatunsisf>
    1362:	20 e0       	ldi	r18, 0x00	; 0
    1364:	30 e0       	ldi	r19, 0x00	; 0
    1366:	4a e7       	ldi	r20, 0x7A	; 122
    1368:	53 e4       	ldi	r21, 0x43	; 67
    136a:	0e 94 cc 17 	call	0x2f98	; 0x2f98 <__divsf3>
    136e:	9b 01       	movw	r18, r22
    1370:	ac 01       	movw	r20, r24
    1372:	60 e0       	ldi	r22, 0x00	; 0
    1374:	70 ee       	ldi	r23, 0xE0	; 224
    1376:	86 ea       	ldi	r24, 0xA6	; 166
    1378:	94 e4       	ldi	r25, 0x44	; 68
    137a:	0e 94 5a 17 	call	0x2eb4	; 0x2eb4 <__subsf3>
    137e:	6b 01       	movw	r12, r22
    1380:	7c 01       	movw	r14, r24
    1382:	20 e0       	ldi	r18, 0x00	; 0
    1384:	30 e0       	ldi	r19, 0x00	; 0
    1386:	40 e8       	ldi	r20, 0x80	; 128
    1388:	53 e4       	ldi	r21, 0x43	; 67
    138a:	0e 94 26 19 	call	0x324c	; 0x324c <__mulsf3>
    138e:	4b 01       	movw	r8, r22
    1390:	5c 01       	movw	r10, r24
    1392:	20 e0       	ldi	r18, 0x00	; 0
    1394:	30 e4       	ldi	r19, 0x40	; 64
    1396:	4c e1       	ldi	r20, 0x1C	; 28
    1398:	54 e4       	ldi	r21, 0x44	; 68
    139a:	0e 94 cc 17 	call	0x2f98	; 0x2f98 <__divsf3>
    139e:	0e 94 45 18 	call	0x308a	; 0x308a <__fixunssfsi>
    13a2:	9b 01       	movw	r18, r22
    13a4:	6f 3f       	cpi	r22, 0xFF	; 255
    13a6:	71 05       	cpc	r23, r1
    13a8:	09 f0       	breq	.+2      	; 0x13ac <_Z10setVoltagej+0x8e>
    13aa:	28 f4       	brcc	.+10     	; 0x13b6 <_Z10setVoltagej+0x98>
    13ac:	67 2b       	or	r22, r23
    13ae:	29 f4       	brne	.+10     	; 0x13ba <_Z10setVoltagej+0x9c>
    13b0:	21 e0       	ldi	r18, 0x01	; 1
    13b2:	30 e0       	ldi	r19, 0x00	; 0
    13b4:	02 c0       	rjmp	.+4      	; 0x13ba <_Z10setVoltagej+0x9c>
    13b6:	2f ef       	ldi	r18, 0xFF	; 255
    13b8:	30 e0       	ldi	r19, 0x00	; 0
    13ba:	29 83       	std	Y+1, r18	; 0x01
    13bc:	a1 e7       	ldi	r26, 0x71	; 113
    13be:	b2 e0       	ldi	r27, 0x02	; 2
    13c0:	0e 94 b5 19 	call	0x336a	; 0x336a <__umulhisi3>
    13c4:	0e 94 74 18 	call	0x30e8	; 0x30e8 <__floatunsisf>
    13c8:	20 e0       	ldi	r18, 0x00	; 0
    13ca:	30 e0       	ldi	r19, 0x00	; 0
    13cc:	40 e0       	ldi	r20, 0x00	; 0
    13ce:	5c e3       	ldi	r21, 0x3C	; 60
    13d0:	0e 94 26 19 	call	0x324c	; 0x324c <__mulsf3>
    13d4:	9b 01       	movw	r18, r22
    13d6:	ac 01       	movw	r20, r24
    13d8:	c5 01       	movw	r24, r10
    13da:	b4 01       	movw	r22, r8
    13dc:	0e 94 cc 17 	call	0x2f98	; 0x2f98 <__divsf3>
    13e0:	0e 94 45 18 	call	0x308a	; 0x308a <__fixunssfsi>
    13e4:	6a 83       	std	Y+2, r22	; 0x02
    13e6:	64 e3       	ldi	r22, 0x34	; 52
    13e8:	73 e0       	ldi	r23, 0x03	; 3
    13ea:	81 e8       	ldi	r24, 0x81	; 129
    13ec:	94 e0       	ldi	r25, 0x04	; 4
    13ee:	0e 94 e4 13 	call	0x27c8	; 0x27c8 <_ZN5Print5printEPKc>
    13f2:	22 e0       	ldi	r18, 0x02	; 2
    13f4:	30 e0       	ldi	r19, 0x00	; 0
    13f6:	b7 01       	movw	r22, r14
    13f8:	a6 01       	movw	r20, r12
    13fa:	81 e8       	ldi	r24, 0x81	; 129
    13fc:	94 e0       	ldi	r25, 0x04	; 4
    13fe:	0e 94 9c 15 	call	0x2b38	; 0x2b38 <_ZN5Print7printlnEdi>
    1402:	67 e4       	ldi	r22, 0x47	; 71
    1404:	73 e0       	ldi	r23, 0x03	; 3
    1406:	81 e8       	ldi	r24, 0x81	; 129
    1408:	94 e0       	ldi	r25, 0x04	; 4
    140a:	0e 94 e4 13 	call	0x27c8	; 0x27c8 <_ZN5Print5printEPKc>
    140e:	4a e0       	ldi	r20, 0x0A	; 10
    1410:	50 e0       	ldi	r21, 0x00	; 0
    1412:	69 81       	ldd	r22, Y+1	; 0x01
    1414:	81 e8       	ldi	r24, 0x81	; 129
    1416:	94 e0       	ldi	r25, 0x04	; 4
    1418:	0e 94 8f 14 	call	0x291e	; 0x291e <_ZN5Print7printlnEhi>
    141c:	6f e4       	ldi	r22, 0x4F	; 79
    141e:	73 e0       	ldi	r23, 0x03	; 3
    1420:	81 e8       	ldi	r24, 0x81	; 129
    1422:	94 e0       	ldi	r25, 0x04	; 4
    1424:	0e 94 e4 13 	call	0x27c8	; 0x27c8 <_ZN5Print5printEPKc>
    1428:	4a e0       	ldi	r20, 0x0A	; 10
    142a:	50 e0       	ldi	r21, 0x00	; 0
    142c:	6a 81       	ldd	r22, Y+2	; 0x02
    142e:	81 e8       	ldi	r24, 0x81	; 129
    1430:	94 e0       	ldi	r25, 0x04	; 4
    1432:	0e 94 8f 14 	call	0x291e	; 0x291e <_ZN5Print7printlnEhi>
    1436:	29 81       	ldd	r18, Y+1	; 0x01
    1438:	aa 81       	ldd	r26, Y+2	; 0x02
    143a:	30 e0       	ldi	r19, 0x00	; 0
    143c:	b0 e0       	ldi	r27, 0x00	; 0
    143e:	0e 94 b5 19 	call	0x336a	; 0x336a <__umulhisi3>
    1442:	9b 01       	movw	r18, r22
    1444:	ac 01       	movw	r20, r24
    1446:	a2 ee       	ldi	r26, 0xE2	; 226
    1448:	b4 e0       	ldi	r27, 0x04	; 4
    144a:	0e 94 c4 19 	call	0x3388	; 0x3388 <__muluhisi3>
    144e:	6c 01       	movw	r12, r24
    1450:	ee 24       	eor	r14, r14
    1452:	ff 24       	eor	r15, r15
    1454:	67 e5       	ldi	r22, 0x57	; 87
    1456:	73 e0       	ldi	r23, 0x03	; 3
    1458:	81 e8       	ldi	r24, 0x81	; 129
    145a:	94 e0       	ldi	r25, 0x04	; 4
    145c:	0e 94 e4 13 	call	0x27c8	; 0x27c8 <_ZN5Print5printEPKc>
    1460:	4a e0       	ldi	r20, 0x0A	; 10
    1462:	50 e0       	ldi	r21, 0x00	; 0
    1464:	b6 01       	movw	r22, r12
    1466:	81 e8       	ldi	r24, 0x81	; 129
    1468:	94 e0       	ldi	r25, 0x04	; 4
    146a:	0e 94 a7 14 	call	0x294e	; 0x294e <_ZN5Print7printlnEji>
    146e:	60 e7       	ldi	r22, 0x70	; 112
    1470:	73 e0       	ldi	r23, 0x03	; 3
    1472:	81 e8       	ldi	r24, 0x81	; 129
    1474:	94 e0       	ldi	r25, 0x04	; 4
    1476:	0e 94 e4 13 	call	0x27c8	; 0x27c8 <_ZN5Print5printEPKc>
    147a:	a6 e0       	ldi	r26, 0x06	; 6
    147c:	bf ef       	ldi	r27, 0xFF	; 255
    147e:	a7 01       	movw	r20, r14
    1480:	96 01       	movw	r18, r12
    1482:	0e 94 d2 19 	call	0x33a4	; 0x33a4 <__mulohisi3>
    1486:	6a 54       	subi	r22, 0x4A	; 74
    1488:	78 4e       	sbci	r23, 0xE8	; 232
    148a:	8a 4f       	sbci	r24, 0xFA	; 250
    148c:	9f 4f       	sbci	r25, 0xFF	; 255
    148e:	21 e1       	ldi	r18, 0x11	; 17
    1490:	30 e0       	ldi	r19, 0x00	; 0
    1492:	40 e0       	ldi	r20, 0x00	; 0
    1494:	50 e0       	ldi	r21, 0x00	; 0
    1496:	0e 94 93 19 	call	0x3326	; 0x3326 <__udivmodsi4>
    149a:	ca 01       	movw	r24, r20
    149c:	b9 01       	movw	r22, r18
    149e:	4a e0       	ldi	r20, 0x0A	; 10
    14a0:	50 e0       	ldi	r21, 0x00	; 0
    14a2:	81 e8       	ldi	r24, 0x81	; 129
    14a4:	94 e0       	ldi	r25, 0x04	; 4
    14a6:	0e 94 a7 14 	call	0x294e	; 0x294e <_ZN5Print7printlnEji>
    14aa:	22 e0       	ldi	r18, 0x02	; 2
    14ac:	ae 01       	movw	r20, r28
    14ae:	4f 5f       	subi	r20, 0xFF	; 255
    14b0:	5f 4f       	sbci	r21, 0xFF	; 255
    14b2:	60 e0       	ldi	r22, 0x00	; 0
    14b4:	80 e5       	ldi	r24, 0x50	; 80
    14b6:	0e 94 20 13 	call	0x2640	; 0x2640 <_Z9i2c_writehhPhh>
    14ba:	81 e0       	ldi	r24, 0x01	; 1
    14bc:	0f 90       	pop	r0
    14be:	0f 90       	pop	r0
    14c0:	df 91       	pop	r29
    14c2:	cf 91       	pop	r28
    14c4:	ff 90       	pop	r15
    14c6:	ef 90       	pop	r14
    14c8:	df 90       	pop	r13
    14ca:	cf 90       	pop	r12
    14cc:	bf 90       	pop	r11
    14ce:	af 90       	pop	r10
    14d0:	9f 90       	pop	r9
    14d2:	8f 90       	pop	r8
    14d4:	08 95       	ret

000014d6 <_Z15setCurrentLimitj>:
    14d6:	4f 92       	push	r4
    14d8:	5f 92       	push	r5
    14da:	6f 92       	push	r6
    14dc:	7f 92       	push	r7
    14de:	af 92       	push	r10
    14e0:	bf 92       	push	r11
    14e2:	cf 92       	push	r12
    14e4:	df 92       	push	r13
    14e6:	ef 92       	push	r14
    14e8:	ff 92       	push	r15
    14ea:	0f 93       	push	r16
    14ec:	1f 93       	push	r17
    14ee:	cf 93       	push	r28
    14f0:	df 93       	push	r29
    14f2:	00 d0       	rcall	.+0      	; 0x14f4 <_Z15setCurrentLimitj+0x1e>
    14f4:	cd b7       	in	r28, 0x3d	; 61
    14f6:	de b7       	in	r29, 0x3e	; 62
    14f8:	5c 01       	movw	r10, r24
    14fa:	0a 97       	sbiw	r24, 0x0a	; 10
    14fc:	8f 37       	cpi	r24, 0x7F	; 127
    14fe:	93 41       	sbci	r25, 0x13	; 19
    1500:	40 f0       	brcs	.+16     	; 0x1512 <_Z15setCurrentLimitj+0x3c>
    1502:	68 e7       	ldi	r22, 0x78	; 120
    1504:	75 e0       	ldi	r23, 0x05	; 5
    1506:	81 e8       	ldi	r24, 0x81	; 129
    1508:	94 e0       	ldi	r25, 0x04	; 4
    150a:	0e 94 01 14 	call	0x2802	; 0x2802 <_ZN5Print7printlnEPK19__FlashStringHelper>
    150e:	80 e0       	ldi	r24, 0x00	; 0
    1510:	c0 c0       	rjmp	.+384    	; 0x1692 <_Z15setCurrentLimitj+0x1bc>
    1512:	b5 01       	movw	r22, r10
    1514:	80 e0       	ldi	r24, 0x00	; 0
    1516:	90 e0       	ldi	r25, 0x00	; 0
    1518:	0e 94 74 18 	call	0x30e8	; 0x30e8 <__floatunsisf>
    151c:	20 e0       	ldi	r18, 0x00	; 0
    151e:	30 e0       	ldi	r19, 0x00	; 0
    1520:	40 ea       	ldi	r20, 0xA0	; 160
    1522:	50 e4       	ldi	r21, 0x40	; 64
    1524:	0e 94 cc 17 	call	0x2f98	; 0x2f98 <__divsf3>
    1528:	6b 01       	movw	r12, r22
    152a:	7c 01       	movw	r14, r24
    152c:	20 e0       	ldi	r18, 0x00	; 0
    152e:	30 e0       	ldi	r19, 0x00	; 0
    1530:	40 e0       	ldi	r20, 0x00	; 0
    1532:	53 e4       	ldi	r21, 0x43	; 67
    1534:	0e 94 26 19 	call	0x324c	; 0x324c <__mulsf3>
    1538:	20 e0       	ldi	r18, 0x00	; 0
    153a:	30 e4       	ldi	r19, 0x40	; 64
    153c:	4c e1       	ldi	r20, 0x1C	; 28
    153e:	54 e4       	ldi	r21, 0x44	; 68
    1540:	0e 94 cc 17 	call	0x2f98	; 0x2f98 <__divsf3>
    1544:	0e 94 45 18 	call	0x308a	; 0x308a <__fixunssfsi>
    1548:	8b 01       	movw	r16, r22
    154a:	6f 3f       	cpi	r22, 0xFF	; 255
    154c:	71 05       	cpc	r23, r1
    154e:	09 f0       	breq	.+2      	; 0x1552 <_Z15setCurrentLimitj+0x7c>
    1550:	28 f4       	brcc	.+10     	; 0x155c <_Z15setCurrentLimitj+0x86>
    1552:	67 2b       	or	r22, r23
    1554:	29 f4       	brne	.+10     	; 0x1560 <_Z15setCurrentLimitj+0x8a>
    1556:	01 e0       	ldi	r16, 0x01	; 1
    1558:	10 e0       	ldi	r17, 0x00	; 0
    155a:	02 c0       	rjmp	.+4      	; 0x1560 <_Z15setCurrentLimitj+0x8a>
    155c:	0f ef       	ldi	r16, 0xFF	; 255
    155e:	10 e0       	ldi	r17, 0x00	; 0
    1560:	09 83       	std	Y+1, r16	; 0x01
    1562:	20 e0       	ldi	r18, 0x00	; 0
    1564:	30 e0       	ldi	r19, 0x00	; 0
    1566:	40 e8       	ldi	r20, 0x80	; 128
    1568:	53 e4       	ldi	r21, 0x43	; 67
    156a:	c7 01       	movw	r24, r14
    156c:	b6 01       	movw	r22, r12
    156e:	0e 94 26 19 	call	0x324c	; 0x324c <__mulsf3>
    1572:	2b 01       	movw	r4, r22
    1574:	3c 01       	movw	r6, r24
    1576:	98 01       	movw	r18, r16
    1578:	a1 e7       	ldi	r26, 0x71	; 113
    157a:	b2 e0       	ldi	r27, 0x02	; 2
    157c:	0e 94 b5 19 	call	0x336a	; 0x336a <__umulhisi3>
    1580:	0e 94 74 18 	call	0x30e8	; 0x30e8 <__floatunsisf>
    1584:	20 e0       	ldi	r18, 0x00	; 0
    1586:	30 e0       	ldi	r19, 0x00	; 0
    1588:	40 e8       	ldi	r20, 0x80	; 128
    158a:	5c e3       	ldi	r21, 0x3C	; 60
    158c:	0e 94 26 19 	call	0x324c	; 0x324c <__mulsf3>
    1590:	9b 01       	movw	r18, r22
    1592:	ac 01       	movw	r20, r24
    1594:	c3 01       	movw	r24, r6
    1596:	b2 01       	movw	r22, r4
    1598:	0e 94 cc 17 	call	0x2f98	; 0x2f98 <__divsf3>
    159c:	0e 94 45 18 	call	0x308a	; 0x308a <__fixunssfsi>
    15a0:	6a 83       	std	Y+2, r22	; 0x02
    15a2:	6c eb       	ldi	r22, 0xBC	; 188
    15a4:	73 e0       	ldi	r23, 0x03	; 3
    15a6:	81 e8       	ldi	r24, 0x81	; 129
    15a8:	94 e0       	ldi	r25, 0x04	; 4
    15aa:	0e 94 e4 13 	call	0x27c8	; 0x27c8 <_ZN5Print5printEPKc>
    15ae:	4a e0       	ldi	r20, 0x0A	; 10
    15b0:	50 e0       	ldi	r21, 0x00	; 0
    15b2:	b5 01       	movw	r22, r10
    15b4:	81 e8       	ldi	r24, 0x81	; 129
    15b6:	94 e0       	ldi	r25, 0x04	; 4
    15b8:	0e 94 a7 14 	call	0x294e	; 0x294e <_ZN5Print7printlnEji>
    15bc:	63 ed       	ldi	r22, 0xD3	; 211
    15be:	73 e0       	ldi	r23, 0x03	; 3
    15c0:	81 e8       	ldi	r24, 0x81	; 129
    15c2:	94 e0       	ldi	r25, 0x04	; 4
    15c4:	0e 94 e4 13 	call	0x27c8	; 0x27c8 <_ZN5Print5printEPKc>
    15c8:	22 e0       	ldi	r18, 0x02	; 2
    15ca:	30 e0       	ldi	r19, 0x00	; 0
    15cc:	b7 01       	movw	r22, r14
    15ce:	a6 01       	movw	r20, r12
    15d0:	81 e8       	ldi	r24, 0x81	; 129
    15d2:	94 e0       	ldi	r25, 0x04	; 4
    15d4:	0e 94 9c 15 	call	0x2b38	; 0x2b38 <_ZN5Print7printlnEdi>
    15d8:	67 e4       	ldi	r22, 0x47	; 71
    15da:	73 e0       	ldi	r23, 0x03	; 3
    15dc:	81 e8       	ldi	r24, 0x81	; 129
    15de:	94 e0       	ldi	r25, 0x04	; 4
    15e0:	0e 94 e4 13 	call	0x27c8	; 0x27c8 <_ZN5Print5printEPKc>
    15e4:	4a e0       	ldi	r20, 0x0A	; 10
    15e6:	50 e0       	ldi	r21, 0x00	; 0
    15e8:	69 81       	ldd	r22, Y+1	; 0x01
    15ea:	81 e8       	ldi	r24, 0x81	; 129
    15ec:	94 e0       	ldi	r25, 0x04	; 4
    15ee:	0e 94 8f 14 	call	0x291e	; 0x291e <_ZN5Print7printlnEhi>
    15f2:	6f e4       	ldi	r22, 0x4F	; 79
    15f4:	73 e0       	ldi	r23, 0x03	; 3
    15f6:	81 e8       	ldi	r24, 0x81	; 129
    15f8:	94 e0       	ldi	r25, 0x04	; 4
    15fa:	0e 94 e4 13 	call	0x27c8	; 0x27c8 <_ZN5Print5printEPKc>
    15fe:	4a e0       	ldi	r20, 0x0A	; 10
    1600:	50 e0       	ldi	r21, 0x00	; 0
    1602:	6a 81       	ldd	r22, Y+2	; 0x02
    1604:	81 e8       	ldi	r24, 0x81	; 129
    1606:	94 e0       	ldi	r25, 0x04	; 4
    1608:	0e 94 8f 14 	call	0x291e	; 0x291e <_ZN5Print7printlnEhi>
    160c:	29 81       	ldd	r18, Y+1	; 0x01
    160e:	aa 81       	ldd	r26, Y+2	; 0x02
    1610:	30 e0       	ldi	r19, 0x00	; 0
    1612:	b0 e0       	ldi	r27, 0x00	; 0
    1614:	0e 94 b5 19 	call	0x336a	; 0x336a <__umulhisi3>
    1618:	9b 01       	movw	r18, r22
    161a:	ac 01       	movw	r20, r24
    161c:	a4 ec       	ldi	r26, 0xC4	; 196
    161e:	b9 e0       	ldi	r27, 0x09	; 9
    1620:	0e 94 c4 19 	call	0x3388	; 0x3388 <__muluhisi3>
    1624:	0e 94 74 18 	call	0x30e8	; 0x30e8 <__floatunsisf>
    1628:	20 e0       	ldi	r18, 0x00	; 0
    162a:	30 e0       	ldi	r19, 0x00	; 0
    162c:	40 e8       	ldi	r20, 0x80	; 128
    162e:	57 e3       	ldi	r21, 0x37	; 55
    1630:	0e 94 26 19 	call	0x324c	; 0x324c <__mulsf3>
    1634:	6b 01       	movw	r12, r22
    1636:	7c 01       	movw	r14, r24
    1638:	67 ee       	ldi	r22, 0xE7	; 231
    163a:	73 e0       	ldi	r23, 0x03	; 3
    163c:	81 e8       	ldi	r24, 0x81	; 129
    163e:	94 e0       	ldi	r25, 0x04	; 4
    1640:	0e 94 e4 13 	call	0x27c8	; 0x27c8 <_ZN5Print5printEPKc>
    1644:	22 e0       	ldi	r18, 0x02	; 2
    1646:	30 e0       	ldi	r19, 0x00	; 0
    1648:	b7 01       	movw	r22, r14
    164a:	a6 01       	movw	r20, r12
    164c:	81 e8       	ldi	r24, 0x81	; 129
    164e:	94 e0       	ldi	r25, 0x04	; 4
    1650:	0e 94 9c 15 	call	0x2b38	; 0x2b38 <_ZN5Print7printlnEdi>
    1654:	63 e0       	ldi	r22, 0x03	; 3
    1656:	74 e0       	ldi	r23, 0x04	; 4
    1658:	81 e8       	ldi	r24, 0x81	; 129
    165a:	94 e0       	ldi	r25, 0x04	; 4
    165c:	0e 94 e4 13 	call	0x27c8	; 0x27c8 <_ZN5Print5printEPKc>
    1660:	20 e0       	ldi	r18, 0x00	; 0
    1662:	30 e0       	ldi	r19, 0x00	; 0
    1664:	40 ea       	ldi	r20, 0xA0	; 160
    1666:	50 e4       	ldi	r21, 0x40	; 64
    1668:	c7 01       	movw	r24, r14
    166a:	b6 01       	movw	r22, r12
    166c:	0e 94 26 19 	call	0x324c	; 0x324c <__mulsf3>
    1670:	ab 01       	movw	r20, r22
    1672:	bc 01       	movw	r22, r24
    1674:	22 e0       	ldi	r18, 0x02	; 2
    1676:	30 e0       	ldi	r19, 0x00	; 0
    1678:	81 e8       	ldi	r24, 0x81	; 129
    167a:	94 e0       	ldi	r25, 0x04	; 4
    167c:	0e 94 9c 15 	call	0x2b38	; 0x2b38 <_ZN5Print7printlnEdi>
    1680:	22 e0       	ldi	r18, 0x02	; 2
    1682:	ae 01       	movw	r20, r28
    1684:	4f 5f       	subi	r20, 0xFF	; 255
    1686:	5f 4f       	sbci	r21, 0xFF	; 255
    1688:	60 e0       	ldi	r22, 0x00	; 0
    168a:	81 e5       	ldi	r24, 0x51	; 81
    168c:	0e 94 20 13 	call	0x2640	; 0x2640 <_Z9i2c_writehhPhh>
    1690:	81 e0       	ldi	r24, 0x01	; 1
    1692:	0f 90       	pop	r0
    1694:	0f 90       	pop	r0
    1696:	df 91       	pop	r29
    1698:	cf 91       	pop	r28
    169a:	1f 91       	pop	r17
    169c:	0f 91       	pop	r16
    169e:	ff 90       	pop	r15
    16a0:	ef 90       	pop	r14
    16a2:	df 90       	pop	r13
    16a4:	cf 90       	pop	r12
    16a6:	bf 90       	pop	r11
    16a8:	af 90       	pop	r10
    16aa:	7f 90       	pop	r7
    16ac:	6f 90       	pop	r6
    16ae:	5f 90       	pop	r5
    16b0:	4f 90       	pop	r4
    16b2:	08 95       	ret

000016b4 <__vector_1>:
    16b4:	1f 92       	push	r1
    16b6:	0f 92       	push	r0
    16b8:	0f b6       	in	r0, 0x3f	; 63
    16ba:	0f 92       	push	r0
    16bc:	11 24       	eor	r1, r1
    16be:	0f 90       	pop	r0
    16c0:	0f be       	out	0x3f, r0	; 63
    16c2:	0f 90       	pop	r0
    16c4:	1f 90       	pop	r1
    16c6:	18 95       	reti

000016c8 <_Z19i2c_internal_pullupb>:
    16c8:	1f 93       	push	r17
    16ca:	cf 93       	push	r28
    16cc:	df 93       	push	r29
    16ce:	00 d0       	rcall	.+0      	; 0x16d0 <_Z19i2c_internal_pullupb+0x8>
    16d0:	00 d0       	rcall	.+0      	; 0x16d2 <_Z19i2c_internal_pullupb+0xa>
    16d2:	00 d0       	rcall	.+0      	; 0x16d4 <_Z19i2c_internal_pullupb+0xc>
    16d4:	cd b7       	in	r28, 0x3d	; 61
    16d6:	de b7       	in	r29, 0x3e	; 62
    16d8:	18 2f       	mov	r17, r24
    16da:	62 e1       	ldi	r22, 0x12	; 18
    16dc:	ce 01       	movw	r24, r28
    16de:	04 96       	adiw	r24, 0x04	; 4
    16e0:	0e 94 af 0f 	call	0x1f5e	; 0x1f5e <_ZN4GPIOC1Eh>
    16e4:	63 e1       	ldi	r22, 0x13	; 19
    16e6:	ce 01       	movw	r24, r28
    16e8:	01 96       	adiw	r24, 0x01	; 1
    16ea:	0e 94 af 0f 	call	0x1f5e	; 0x1f5e <_ZN4GPIOC1Eh>
    16ee:	ce 01       	movw	r24, r28
    16f0:	04 96       	adiw	r24, 0x04	; 4
    16f2:	11 23       	and	r17, r17
    16f4:	39 f0       	breq	.+14     	; 0x1704 <_Z19i2c_internal_pullupb+0x3c>
    16f6:	0e 94 92 0f 	call	0x1f24	; 0x1f24 <_ZN4GPIO14setInputPullUpEv>
    16fa:	ce 01       	movw	r24, r28
    16fc:	01 96       	adiw	r24, 0x01	; 1
    16fe:	0e 94 92 0f 	call	0x1f24	; 0x1f24 <_ZN4GPIO14setInputPullUpEv>
    1702:	06 c0       	rjmp	.+12     	; 0x1710 <_Z19i2c_internal_pullupb+0x48>
    1704:	0e 94 74 0f 	call	0x1ee8	; 0x1ee8 <_ZN4GPIO16setInputPullDownEv>
    1708:	ce 01       	movw	r24, r28
    170a:	04 96       	adiw	r24, 0x04	; 4
    170c:	0e 94 74 0f 	call	0x1ee8	; 0x1ee8 <_ZN4GPIO16setInputPullDownEv>
    1710:	26 96       	adiw	r28, 0x06	; 6
    1712:	0f b6       	in	r0, 0x3f	; 63
    1714:	f8 94       	cli
    1716:	de bf       	out	0x3e, r29	; 62
    1718:	0f be       	out	0x3f, r0	; 63
    171a:	cd bf       	out	0x3d, r28	; 61
    171c:	df 91       	pop	r29
    171e:	cf 91       	pop	r28
    1720:	1f 91       	pop	r17
    1722:	08 95       	ret

00001724 <_Z12initPlatformv>:
    1724:	0e 94 8b 16 	call	0x2d16	; 0x2d16 <init>
    1728:	40 e0       	ldi	r20, 0x00	; 0
    172a:	51 ee       	ldi	r21, 0xE1	; 225
    172c:	60 e0       	ldi	r22, 0x00	; 0
    172e:	70 e0       	ldi	r23, 0x00	; 0
    1730:	81 e8       	ldi	r24, 0x81	; 129
    1732:	94 e0       	ldi	r25, 0x04	; 4
    1734:	0e 94 45 11 	call	0x228a	; 0x228a <_ZN14HardwareSerial5beginEm>
    1738:	63 e6       	ldi	r22, 0x63	; 99
    173a:	75 e0       	ldi	r23, 0x05	; 5
    173c:	81 e8       	ldi	r24, 0x81	; 129
    173e:	94 e0       	ldi	r25, 0x04	; 4
    1740:	0e 94 c1 13 	call	0x2782	; 0x2782 <_ZN5Print5printEPK19__FlashStringHelper>
    1744:	60 e8       	ldi	r22, 0x80	; 128
    1746:	7a e1       	ldi	r23, 0x1A	; 26
    1748:	86 e0       	ldi	r24, 0x06	; 6
    174a:	90 e0       	ldi	r25, 0x00	; 0
    174c:	0e 94 05 12 	call	0x240a	; 0x240a <_Z8i2c_initm>
    1750:	81 e0       	ldi	r24, 0x01	; 1
    1752:	0c 94 64 0b 	jmp	0x16c8	; 0x16c8 <_Z19i2c_internal_pullupb>

00001756 <main>:
    1756:	cf 93       	push	r28
    1758:	df 93       	push	r29
    175a:	cd b7       	in	r28, 0x3d	; 61
    175c:	de b7       	in	r29, 0x3e	; 62
    175e:	a3 97       	sbiw	r28, 0x23	; 35
    1760:	0f b6       	in	r0, 0x3f	; 63
    1762:	f8 94       	cli
    1764:	de bf       	out	0x3e, r29	; 62
    1766:	0f be       	out	0x3f, r0	; 63
    1768:	cd bf       	out	0x3d, r28	; 61
    176a:	a8 95       	wdr
    176c:	0f b6       	in	r0, 0x3f	; 63
    176e:	f8 94       	cli
    1770:	a8 95       	wdr
    1772:	80 91 60 00 	lds	r24, 0x0060	; 0x800060 <__TEXT_REGION_LENGTH__+0x7e0060>
    1776:	88 61       	ori	r24, 0x18	; 24
    1778:	80 93 60 00 	sts	0x0060, r24	; 0x800060 <__TEXT_REGION_LENGTH__+0x7e0060>
    177c:	10 92 60 00 	sts	0x0060, r1	; 0x800060 <__TEXT_REGION_LENGTH__+0x7e0060>
    1780:	0f be       	out	0x3f, r0	; 63
    1782:	0e 94 92 0b 	call	0x1724	; 0x1724 <_Z12initPlatformv>
    1786:	64 e4       	ldi	r22, 0x44	; 68
    1788:	83 e6       	ldi	r24, 0x63	; 99
    178a:	94 e0       	ldi	r25, 0x04	; 4
    178c:	0e 94 32 08 	call	0x1064	; 0x1064 <_ZN6INA2605beginEh>
    1790:	07 e0       	ldi	r16, 0x07	; 7
    1792:	24 e0       	ldi	r18, 0x04	; 4
    1794:	44 e0       	ldi	r20, 0x04	; 4
    1796:	60 e0       	ldi	r22, 0x00	; 0
    1798:	83 e6       	ldi	r24, 0x63	; 99
    179a:	94 e0       	ldi	r25, 0x04	; 4
    179c:	0e 94 8d 08 	call	0x111a	; 0x111a <_ZN6INA2609configureE17INA260_averages_t20INA260_busConvTime_t22INA260_shuntConvTime_t13INA260_mode_t>
    17a0:	80 ec       	ldi	r24, 0xC0	; 192
    17a2:	8b a3       	std	Y+35, r24	; 0x23
    17a4:	21 e0       	ldi	r18, 0x01	; 1
    17a6:	ae 01       	movw	r20, r28
    17a8:	4d 5d       	subi	r20, 0xDD	; 221
    17aa:	5f 4f       	sbci	r21, 0xFF	; 255
    17ac:	60 e1       	ldi	r22, 0x10	; 16
    17ae:	80 e5       	ldi	r24, 0x50	; 80
    17b0:	0e 94 20 13 	call	0x2640	; 0x2640 <_Z9i2c_writehhPhh>
    17b4:	84 ec       	ldi	r24, 0xC4	; 196
    17b6:	99 e0       	ldi	r25, 0x09	; 9
    17b8:	0e 94 8f 09 	call	0x131e	; 0x131e <_Z10setVoltagej>
    17bc:	88 e8       	ldi	r24, 0x88	; 136
    17be:	93 e1       	ldi	r25, 0x13	; 19
    17c0:	0e 94 6b 0a 	call	0x14d6	; 0x14d6 <_Z15setCurrentLimitj>
    17c4:	68 ec       	ldi	r22, 0xC8	; 200
    17c6:	70 e0       	ldi	r23, 0x00	; 0
    17c8:	80 e0       	ldi	r24, 0x00	; 0
    17ca:	90 e0       	ldi	r25, 0x00	; 0
    17cc:	0e 94 65 16 	call	0x2cca	; 0x2cca <delay>
    17d0:	44 e0       	ldi	r20, 0x04	; 4
    17d2:	68 e2       	ldi	r22, 0x28	; 40
    17d4:	8c e3       	ldi	r24, 0x3C	; 60
    17d6:	94 e0       	ldi	r25, 0x04	; 4
    17d8:	0e 94 89 07 	call	0xf12	; 0xf12 <_ZN16Adafruit_PCD85445beginEhh>
    17dc:	20 e0       	ldi	r18, 0x00	; 0
    17de:	30 e0       	ldi	r19, 0x00	; 0
    17e0:	40 ea       	ldi	r20, 0xA0	; 160
    17e2:	50 e4       	ldi	r21, 0x40	; 64
    17e4:	60 e0       	ldi	r22, 0x00	; 0
    17e6:	70 e0       	ldi	r23, 0x00	; 0
    17e8:	80 e2       	ldi	r24, 0x20	; 32
    17ea:	90 e4       	ldi	r25, 0x40	; 64
    17ec:	0e 94 e0 08 	call	0x11c0	; 0x11c0 <_Z13displayUpdateff>
    17f0:	25 e0       	ldi	r18, 0x05	; 5
    17f2:	44 e0       	ldi	r20, 0x04	; 4
    17f4:	62 e0       	ldi	r22, 0x02	; 2
    17f6:	ce 01       	movw	r24, r28
    17f8:	42 96       	adiw	r24, 0x12	; 18
    17fa:	0e 94 ea 0d 	call	0x1bd4	; 0x1bd4 <_ZN14Rotary_EncoderC1Ehhh>
    17fe:	82 e0       	ldi	r24, 0x02	; 2
    1800:	e8 2e       	mov	r14, r24
    1802:	04 e6       	ldi	r16, 0x64	; 100
    1804:	10 e0       	ldi	r17, 0x00	; 0
    1806:	28 e7       	ldi	r18, 0x78	; 120
    1808:	35 e0       	ldi	r19, 0x05	; 5
    180a:	40 e5       	ldi	r20, 0x50	; 80
    180c:	56 e4       	ldi	r21, 0x46	; 70
    180e:	64 ee       	ldi	r22, 0xE4	; 228
    1810:	7c e0       	ldi	r23, 0x0C	; 12
    1812:	ce 01       	movw	r24, r28
    1814:	42 96       	adiw	r24, 0x12	; 18
    1816:	0e 94 d3 0c 	call	0x19a6	; 0x19a6 <_ZN14Rotary_Encoder20configure_attributesEjjjjh>
    181a:	21 e0       	ldi	r18, 0x01	; 1
    181c:	40 e0       	ldi	r20, 0x00	; 0
    181e:	61 e0       	ldi	r22, 0x01	; 1
    1820:	ce 01       	movw	r24, r28
    1822:	01 96       	adiw	r24, 0x01	; 1
    1824:	0e 94 ea 0d 	call	0x1bd4	; 0x1bd4 <_ZN14Rotary_EncoderC1Ehhh>
    1828:	ee 24       	eor	r14, r14
    182a:	e3 94       	inc	r14
    182c:	0a e0       	ldi	r16, 0x0A	; 10
    182e:	10 e0       	ldi	r17, 0x00	; 0
    1830:	2a e0       	ldi	r18, 0x0A	; 10
    1832:	30 e0       	ldi	r19, 0x00	; 0
    1834:	48 e8       	ldi	r20, 0x88	; 136
    1836:	53 e1       	ldi	r21, 0x13	; 19
    1838:	68 ee       	ldi	r22, 0xE8	; 232
    183a:	73 e0       	ldi	r23, 0x03	; 3
    183c:	ce 01       	movw	r24, r28
    183e:	01 96       	adiw	r24, 0x01	; 1
    1840:	0e 94 d3 0c 	call	0x19a6	; 0x19a6 <_ZN14Rotary_Encoder20configure_attributesEjjjjh>
    1844:	00 ef       	ldi	r16, 0xF0	; 240
    1846:	10 e1       	ldi	r17, 0x10	; 16
    1848:	ce 01       	movw	r24, r28
    184a:	42 96       	adiw	r24, 0x12	; 18
    184c:	0e 94 90 0c 	call	0x1920	; 0x1920 <_ZN14Rotary_Encoder10encoderDirEv>
    1850:	82 30       	cpi	r24, 0x02	; 2
    1852:	69 f0       	breq	.+26     	; 0x186e <main+0x118>
    1854:	83 30       	cpi	r24, 0x03	; 3
    1856:	a9 f4       	brne	.+42     	; 0x1882 <main+0x12c>
    1858:	6a ec       	ldi	r22, 0xCA	; 202
    185a:	75 e0       	ldi	r23, 0x05	; 5
    185c:	81 e8       	ldi	r24, 0x81	; 129
    185e:	94 e0       	ldi	r25, 0x04	; 4
    1860:	0e 94 01 14 	call	0x2802	; 0x2802 <_ZN5Print7printlnEPK19__FlashStringHelper>
    1864:	ce 01       	movw	r24, r28
    1866:	42 96       	adiw	r24, 0x12	; 18
    1868:	0e 94 bb 0c 	call	0x1976	; 0x1976 <_ZN14Rotary_Encoder8decreaseEv>
    186c:	0a c0       	rjmp	.+20     	; 0x1882 <main+0x12c>
    186e:	69 ed       	ldi	r22, 0xD9	; 217
    1870:	75 e0       	ldi	r23, 0x05	; 5
    1872:	81 e8       	ldi	r24, 0x81	; 129
    1874:	94 e0       	ldi	r25, 0x04	; 4
    1876:	0e 94 01 14 	call	0x2802	; 0x2802 <_ZN5Print7printlnEPK19__FlashStringHelper>
    187a:	ce 01       	movw	r24, r28
    187c:	42 96       	adiw	r24, 0x12	; 18
    187e:	0e 94 a3 0c 	call	0x1946	; 0x1946 <_ZN14Rotary_Encoder8increaseEv>
    1882:	ce 01       	movw	r24, r28
    1884:	01 96       	adiw	r24, 0x01	; 1
    1886:	0e 94 90 0c 	call	0x1920	; 0x1920 <_ZN14Rotary_Encoder10encoderDirEv>
    188a:	82 30       	cpi	r24, 0x02	; 2
    188c:	39 f0       	breq	.+14     	; 0x189c <main+0x146>
    188e:	83 30       	cpi	r24, 0x03	; 3
    1890:	49 f4       	brne	.+18     	; 0x18a4 <main+0x14e>
    1892:	ce 01       	movw	r24, r28
    1894:	01 96       	adiw	r24, 0x01	; 1
    1896:	0e 94 bb 0c 	call	0x1976	; 0x1976 <_ZN14Rotary_Encoder8decreaseEv>
    189a:	04 c0       	rjmp	.+8      	; 0x18a4 <main+0x14e>
    189c:	ce 01       	movw	r24, r28
    189e:	01 96       	adiw	r24, 0x01	; 1
    18a0:	0e 94 a3 0c 	call	0x1946	; 0x1946 <_ZN14Rotary_Encoder8increaseEv>
    18a4:	8a 89       	ldd	r24, Y+18	; 0x12
    18a6:	9b 89       	ldd	r25, Y+19	; 0x13
    18a8:	0e 94 8f 09 	call	0x131e	; 0x131e <_Z10setVoltagej>
    18ac:	89 81       	ldd	r24, Y+1	; 0x01
    18ae:	9a 81       	ldd	r25, Y+2	; 0x02
    18b0:	0e 94 6b 0a 	call	0x14d6	; 0x14d6 <_Z15setCurrentLimitj>
    18b4:	69 81       	ldd	r22, Y+1	; 0x01
    18b6:	7a 81       	ldd	r23, Y+2	; 0x02
    18b8:	80 e0       	ldi	r24, 0x00	; 0
    18ba:	90 e0       	ldi	r25, 0x00	; 0
    18bc:	0e 94 74 18 	call	0x30e8	; 0x30e8 <__floatunsisf>
    18c0:	20 e0       	ldi	r18, 0x00	; 0
    18c2:	30 e0       	ldi	r19, 0x00	; 0
    18c4:	4a e7       	ldi	r20, 0x7A	; 122
    18c6:	54 e4       	ldi	r21, 0x44	; 68
    18c8:	0e 94 cc 17 	call	0x2f98	; 0x2f98 <__divsf3>
    18cc:	6b 01       	movw	r12, r22
    18ce:	7c 01       	movw	r14, r24
    18d0:	6a 89       	ldd	r22, Y+18	; 0x12
    18d2:	7b 89       	ldd	r23, Y+19	; 0x13
    18d4:	80 e0       	ldi	r24, 0x00	; 0
    18d6:	90 e0       	ldi	r25, 0x00	; 0
    18d8:	0e 94 74 18 	call	0x30e8	; 0x30e8 <__floatunsisf>
    18dc:	20 e0       	ldi	r18, 0x00	; 0
    18de:	30 e0       	ldi	r19, 0x00	; 0
    18e0:	4a e7       	ldi	r20, 0x7A	; 122
    18e2:	54 e4       	ldi	r21, 0x44	; 68
    18e4:	0e 94 cc 17 	call	0x2f98	; 0x2f98 <__divsf3>
    18e8:	a7 01       	movw	r20, r14
    18ea:	96 01       	movw	r18, r12
    18ec:	0e 94 e0 08 	call	0x11c0	; 0x11c0 <_Z13displayUpdateff>
    18f0:	01 15       	cp	r16, r1
    18f2:	11 05       	cpc	r17, r1
    18f4:	09 f4       	brne	.+2      	; 0x18f8 <main+0x1a2>
    18f6:	a8 cf       	rjmp	.-176    	; 0x1848 <main+0xf2>
    18f8:	0e 94 f0 10 	call	0x21e0	; 0x21e0 <_Z14serialEventRunv>
    18fc:	a5 cf       	rjmp	.-182    	; 0x1848 <main+0xf2>

000018fe <_GLOBAL__sub_I_ina>:
    18fe:	68 e4       	ldi	r22, 0x48	; 72
    1900:	8e e5       	ldi	r24, 0x5E	; 94
    1902:	94 e0       	ldi	r25, 0x04	; 4
    1904:	0e 94 2a 08 	call	0x1054	; 0x1054 <_ZN16Adafruit_ADS1115C1Eh>
    1908:	28 e0       	ldi	r18, 0x08	; 8
    190a:	4a e0       	ldi	r20, 0x0A	; 10
    190c:	69 e0       	ldi	r22, 0x09	; 9
    190e:	8c e3       	ldi	r24, 0x3C	; 60
    1910:	94 e0       	ldi	r25, 0x04	; 4
    1912:	0e 94 c9 06 	call	0xd92	; 0xd92 <_ZN16Adafruit_PCD8544C1Eaaa>
    1916:	67 e0       	ldi	r22, 0x07	; 7
    1918:	89 e3       	ldi	r24, 0x39	; 57
    191a:	94 e0       	ldi	r25, 0x04	; 4
    191c:	0c 94 af 0f 	jmp	0x1f5e	; 0x1f5e <_ZN4GPIOC1Eh>

00001920 <_ZN14Rotary_Encoder10encoderDirEv>:
    1920:	cf 93       	push	r28
    1922:	df 93       	push	r29
    1924:	ec 01       	movw	r28, r24
    1926:	8e 85       	ldd	r24, Y+14	; 0x0e
    1928:	9f 85       	ldd	r25, Y+15	; 0x0f
    192a:	0e 94 e2 0e 	call	0x1dc4	; 0x1dc4 <_ZN4fifo7isEmptyEv>
    192e:	81 11       	cpse	r24, r1
    1930:	06 c0       	rjmp	.+12     	; 0x193e <_ZN14Rotary_Encoder10encoderDirEv+0x1e>
    1932:	8e 85       	ldd	r24, Y+14	; 0x0e
    1934:	9f 85       	ldd	r25, Y+15	; 0x0f
    1936:	df 91       	pop	r29
    1938:	cf 91       	pop	r28
    193a:	0c 94 f6 0e 	jmp	0x1dec	; 0x1dec <_ZN9fifo_byte5dequeEv>
    193e:	80 e0       	ldi	r24, 0x00	; 0
    1940:	df 91       	pop	r29
    1942:	cf 91       	pop	r28
    1944:	08 95       	ret

00001946 <_ZN14Rotary_Encoder8increaseEv>:
    1946:	fc 01       	movw	r30, r24
    1948:	81 85       	ldd	r24, Z+9	; 0x09
    194a:	8f 5f       	subi	r24, 0xFF	; 255
    194c:	81 87       	std	Z+9, r24	; 0x09
    194e:	90 85       	ldd	r25, Z+8	; 0x08
    1950:	89 13       	cpse	r24, r25
    1952:	10 c0       	rjmp	.+32     	; 0x1974 <_ZN14Rotary_Encoder8increaseEv+0x2e>
    1954:	40 81       	ld	r20, Z
    1956:	51 81       	ldd	r21, Z+1	; 0x01
    1958:	86 81       	ldd	r24, Z+6	; 0x06
    195a:	97 81       	ldd	r25, Z+7	; 0x07
    195c:	22 81       	ldd	r18, Z+2	; 0x02
    195e:	33 81       	ldd	r19, Z+3	; 0x03
    1960:	28 1b       	sub	r18, r24
    1962:	39 0b       	sbc	r19, r25
    1964:	24 17       	cp	r18, r20
    1966:	35 07       	cpc	r19, r21
    1968:	20 f0       	brcs	.+8      	; 0x1972 <_ZN14Rotary_Encoder8increaseEv+0x2c>
    196a:	84 0f       	add	r24, r20
    196c:	95 1f       	adc	r25, r21
    196e:	91 83       	std	Z+1, r25	; 0x01
    1970:	80 83       	st	Z, r24
    1972:	11 86       	std	Z+9, r1	; 0x09
    1974:	08 95       	ret

00001976 <_ZN14Rotary_Encoder8decreaseEv>:
    1976:	fc 01       	movw	r30, r24
    1978:	82 85       	ldd	r24, Z+10	; 0x0a
    197a:	8f 5f       	subi	r24, 0xFF	; 255
    197c:	82 87       	std	Z+10, r24	; 0x0a
    197e:	90 85       	ldd	r25, Z+8	; 0x08
    1980:	89 13       	cpse	r24, r25
    1982:	10 c0       	rjmp	.+32     	; 0x19a4 <_ZN14Rotary_Encoder8decreaseEv+0x2e>
    1984:	80 81       	ld	r24, Z
    1986:	91 81       	ldd	r25, Z+1	; 0x01
    1988:	46 81       	ldd	r20, Z+6	; 0x06
    198a:	57 81       	ldd	r21, Z+7	; 0x07
    198c:	24 81       	ldd	r18, Z+4	; 0x04
    198e:	35 81       	ldd	r19, Z+5	; 0x05
    1990:	24 0f       	add	r18, r20
    1992:	35 1f       	adc	r19, r21
    1994:	82 17       	cp	r24, r18
    1996:	93 07       	cpc	r25, r19
    1998:	20 f0       	brcs	.+8      	; 0x19a2 <_ZN14Rotary_Encoder8decreaseEv+0x2c>
    199a:	84 1b       	sub	r24, r20
    199c:	95 0b       	sbc	r25, r21
    199e:	91 83       	std	Z+1, r25	; 0x01
    19a0:	80 83       	st	Z, r24
    19a2:	12 86       	std	Z+10, r1	; 0x0a
    19a4:	08 95       	ret

000019a6 <_ZN14Rotary_Encoder20configure_attributesEjjjjh>:
    19a6:	ef 92       	push	r14
    19a8:	0f 93       	push	r16
    19aa:	1f 93       	push	r17
    19ac:	fc 01       	movw	r30, r24
    19ae:	71 83       	std	Z+1, r23	; 0x01
    19b0:	60 83       	st	Z, r22
    19b2:	53 83       	std	Z+3, r21	; 0x03
    19b4:	42 83       	std	Z+2, r20	; 0x02
    19b6:	35 83       	std	Z+5, r19	; 0x05
    19b8:	24 83       	std	Z+4, r18	; 0x04
    19ba:	17 83       	std	Z+7, r17	; 0x07
    19bc:	06 83       	std	Z+6, r16	; 0x06
    19be:	e0 86       	std	Z+8, r14	; 0x08
    19c0:	11 86       	std	Z+9, r1	; 0x09
    19c2:	12 86       	std	Z+10, r1	; 0x0a
    19c4:	1f 91       	pop	r17
    19c6:	0f 91       	pop	r16
    19c8:	ef 90       	pop	r14
    19ca:	08 95       	ret

000019cc <_ZN14Rotary_Encoder6configEhhh>:
    19cc:	ef 92       	push	r14
    19ce:	ff 92       	push	r15
    19d0:	1f 93       	push	r17
    19d2:	cf 93       	push	r28
    19d4:	df 93       	push	r29
    19d6:	ec 01       	movw	r28, r24
    19d8:	16 2f       	mov	r17, r22
    19da:	4c 87       	std	Y+12, r20	; 0x0c
    19dc:	2d 87       	std	Y+13, r18	; 0x0d
    19de:	18 8a       	std	Y+16, r1	; 0x10
    19e0:	8a e0       	ldi	r24, 0x0A	; 10
    19e2:	90 e0       	ldi	r25, 0x00	; 0
    19e4:	0e 94 87 13 	call	0x270e	; 0x270e <_Znwj>
    19e8:	7c 01       	movw	r14, r24
    19ea:	64 e0       	ldi	r22, 0x04	; 4
    19ec:	70 e0       	ldi	r23, 0x00	; 0
    19ee:	0e 94 ef 0e 	call	0x1dde	; 0x1dde <_ZN9fifo_byteC1Ei>
    19f2:	ff 86       	std	Y+15, r15	; 0x0f
    19f4:	ee 86       	std	Y+14, r14	; 0x0e
    19f6:	11 30       	cpi	r17, 0x01	; 1
    19f8:	09 f4       	brne	.+2      	; 0x19fc <_ZN14Rotary_Encoder6configEhhh+0x30>
    19fa:	93 c0       	rjmp	.+294    	; 0x1b22 <_ZN14Rotary_Encoder6configEhhh+0x156>
    19fc:	08 f4       	brcc	.+2      	; 0x1a00 <_ZN14Rotary_Encoder6configEhhh+0x34>
    19fe:	4a c0       	rjmp	.+148    	; 0x1a94 <_ZN14Rotary_Encoder6configEhhh+0xc8>
    1a00:	12 30       	cpi	r17, 0x02	; 2
    1a02:	09 f0       	breq	.+2      	; 0x1a06 <_ZN14Rotary_Encoder6configEhhh+0x3a>
    1a04:	d5 c0       	rjmp	.+426    	; 0x1bb0 <_ZN14Rotary_Encoder6configEhhh+0x1e4>
    1a06:	4a b1       	in	r20, 0x0a	; 10
    1a08:	81 e0       	ldi	r24, 0x01	; 1
    1a0a:	90 e0       	ldi	r25, 0x00	; 0
    1a0c:	bc 01       	movw	r22, r24
    1a0e:	0c 84       	ldd	r0, Y+12	; 0x0c
    1a10:	02 c0       	rjmp	.+4      	; 0x1a16 <_ZN14Rotary_Encoder6configEhhh+0x4a>
    1a12:	66 0f       	add	r22, r22
    1a14:	77 1f       	adc	r23, r23
    1a16:	0a 94       	dec	r0
    1a18:	e2 f7       	brpl	.-8      	; 0x1a12 <_ZN14Rotary_Encoder6configEhhh+0x46>
    1a1a:	9c 01       	movw	r18, r24
    1a1c:	0d 84       	ldd	r0, Y+13	; 0x0d
    1a1e:	02 c0       	rjmp	.+4      	; 0x1a24 <_ZN14Rotary_Encoder6configEhhh+0x58>
    1a20:	22 0f       	add	r18, r18
    1a22:	33 1f       	adc	r19, r19
    1a24:	0a 94       	dec	r0
    1a26:	e2 f7       	brpl	.-8      	; 0x1a20 <_ZN14Rotary_Encoder6configEhhh+0x54>
    1a28:	26 2b       	or	r18, r22
    1a2a:	20 95       	com	r18
    1a2c:	24 23       	and	r18, r20
    1a2e:	2a b9       	out	0x0a, r18	; 10
    1a30:	3b b1       	in	r19, 0x0b	; 11
    1a32:	bc 01       	movw	r22, r24
    1a34:	0c 84       	ldd	r0, Y+12	; 0x0c
    1a36:	02 c0       	rjmp	.+4      	; 0x1a3c <_ZN14Rotary_Encoder6configEhhh+0x70>
    1a38:	66 0f       	add	r22, r22
    1a3a:	77 1f       	adc	r23, r23
    1a3c:	0a 94       	dec	r0
    1a3e:	e2 f7       	brpl	.-8      	; 0x1a38 <_ZN14Rotary_Encoder6configEhhh+0x6c>
    1a40:	ac 01       	movw	r20, r24
    1a42:	0d 84       	ldd	r0, Y+13	; 0x0d
    1a44:	02 c0       	rjmp	.+4      	; 0x1a4a <_ZN14Rotary_Encoder6configEhhh+0x7e>
    1a46:	44 0f       	add	r20, r20
    1a48:	55 1f       	adc	r21, r21
    1a4a:	0a 94       	dec	r0
    1a4c:	e2 f7       	brpl	.-8      	; 0x1a46 <_ZN14Rotary_Encoder6configEhhh+0x7a>
    1a4e:	26 2f       	mov	r18, r22
    1a50:	24 2b       	or	r18, r20
    1a52:	23 2b       	or	r18, r19
    1a54:	2b b9       	out	0x0b, r18	; 11
    1a56:	1b 87       	std	Y+11, r17	; 0x0b
    1a58:	20 91 6d 00 	lds	r18, 0x006D	; 0x80006d <__TEXT_REGION_LENGTH__+0x7e006d>
    1a5c:	ac 01       	movw	r20, r24
    1a5e:	0c 84       	ldd	r0, Y+12	; 0x0c
    1a60:	02 c0       	rjmp	.+4      	; 0x1a66 <_ZN14Rotary_Encoder6configEhhh+0x9a>
    1a62:	44 0f       	add	r20, r20
    1a64:	55 1f       	adc	r21, r21
    1a66:	0a 94       	dec	r0
    1a68:	e2 f7       	brpl	.-8      	; 0x1a62 <_ZN14Rotary_Encoder6configEhhh+0x96>
    1a6a:	0d 84       	ldd	r0, Y+13	; 0x0d
    1a6c:	02 c0       	rjmp	.+4      	; 0x1a72 <_ZN14Rotary_Encoder6configEhhh+0xa6>
    1a6e:	88 0f       	add	r24, r24
    1a70:	99 1f       	adc	r25, r25
    1a72:	0a 94       	dec	r0
    1a74:	e2 f7       	brpl	.-8      	; 0x1a6e <_ZN14Rotary_Encoder6configEhhh+0xa2>
    1a76:	84 2b       	or	r24, r20
    1a78:	82 2b       	or	r24, r18
    1a7a:	80 93 6d 00 	sts	0x006D, r24	; 0x80006d <__TEXT_REGION_LENGTH__+0x7e006d>
    1a7e:	80 91 68 00 	lds	r24, 0x0068	; 0x800068 <__TEXT_REGION_LENGTH__+0x7e0068>
    1a82:	84 60       	ori	r24, 0x04	; 4
    1a84:	80 93 68 00 	sts	0x0068, r24	; 0x800068 <__TEXT_REGION_LENGTH__+0x7e0068>
    1a88:	2b 96       	adiw	r28, 0x0b	; 11
    1a8a:	d0 93 80 04 	sts	0x0480, r29	; 0x800480 <encPropsPerPCINT+0x5>
    1a8e:	c0 93 7f 04 	sts	0x047F, r28	; 0x80047f <encPropsPerPCINT+0x4>
    1a92:	99 c0       	rjmp	.+306    	; 0x1bc6 <_ZN14Rotary_Encoder6configEhhh+0x1fa>
    1a94:	44 b1       	in	r20, 0x04	; 4
    1a96:	81 e0       	ldi	r24, 0x01	; 1
    1a98:	90 e0       	ldi	r25, 0x00	; 0
    1a9a:	bc 01       	movw	r22, r24
    1a9c:	0c 84       	ldd	r0, Y+12	; 0x0c
    1a9e:	02 c0       	rjmp	.+4      	; 0x1aa4 <_ZN14Rotary_Encoder6configEhhh+0xd8>
    1aa0:	66 0f       	add	r22, r22
    1aa2:	77 1f       	adc	r23, r23
    1aa4:	0a 94       	dec	r0
    1aa6:	e2 f7       	brpl	.-8      	; 0x1aa0 <_ZN14Rotary_Encoder6configEhhh+0xd4>
    1aa8:	9c 01       	movw	r18, r24
    1aaa:	0d 84       	ldd	r0, Y+13	; 0x0d
    1aac:	02 c0       	rjmp	.+4      	; 0x1ab2 <_ZN14Rotary_Encoder6configEhhh+0xe6>
    1aae:	22 0f       	add	r18, r18
    1ab0:	33 1f       	adc	r19, r19
    1ab2:	0a 94       	dec	r0
    1ab4:	e2 f7       	brpl	.-8      	; 0x1aae <_ZN14Rotary_Encoder6configEhhh+0xe2>
    1ab6:	26 2b       	or	r18, r22
    1ab8:	20 95       	com	r18
    1aba:	24 23       	and	r18, r20
    1abc:	24 b9       	out	0x04, r18	; 4
    1abe:	35 b1       	in	r19, 0x05	; 5
    1ac0:	bc 01       	movw	r22, r24
    1ac2:	0c 84       	ldd	r0, Y+12	; 0x0c
    1ac4:	02 c0       	rjmp	.+4      	; 0x1aca <_ZN14Rotary_Encoder6configEhhh+0xfe>
    1ac6:	66 0f       	add	r22, r22
    1ac8:	77 1f       	adc	r23, r23
    1aca:	0a 94       	dec	r0
    1acc:	e2 f7       	brpl	.-8      	; 0x1ac6 <_ZN14Rotary_Encoder6configEhhh+0xfa>
    1ace:	ac 01       	movw	r20, r24
    1ad0:	0d 84       	ldd	r0, Y+13	; 0x0d
    1ad2:	02 c0       	rjmp	.+4      	; 0x1ad8 <_ZN14Rotary_Encoder6configEhhh+0x10c>
    1ad4:	44 0f       	add	r20, r20
    1ad6:	55 1f       	adc	r21, r21
    1ad8:	0a 94       	dec	r0
    1ada:	e2 f7       	brpl	.-8      	; 0x1ad4 <_ZN14Rotary_Encoder6configEhhh+0x108>
    1adc:	26 2f       	mov	r18, r22
    1ade:	24 2b       	or	r18, r20
    1ae0:	23 2b       	or	r18, r19
    1ae2:	25 b9       	out	0x05, r18	; 5
    1ae4:	1b 86       	std	Y+11, r1	; 0x0b
    1ae6:	20 91 6b 00 	lds	r18, 0x006B	; 0x80006b <__TEXT_REGION_LENGTH__+0x7e006b>
    1aea:	ac 01       	movw	r20, r24
    1aec:	0c 84       	ldd	r0, Y+12	; 0x0c
    1aee:	02 c0       	rjmp	.+4      	; 0x1af4 <_ZN14Rotary_Encoder6configEhhh+0x128>
    1af0:	44 0f       	add	r20, r20
    1af2:	55 1f       	adc	r21, r21
    1af4:	0a 94       	dec	r0
    1af6:	e2 f7       	brpl	.-8      	; 0x1af0 <_ZN14Rotary_Encoder6configEhhh+0x124>
    1af8:	0d 84       	ldd	r0, Y+13	; 0x0d
    1afa:	02 c0       	rjmp	.+4      	; 0x1b00 <_ZN14Rotary_Encoder6configEhhh+0x134>
    1afc:	88 0f       	add	r24, r24
    1afe:	99 1f       	adc	r25, r25
    1b00:	0a 94       	dec	r0
    1b02:	e2 f7       	brpl	.-8      	; 0x1afc <_ZN14Rotary_Encoder6configEhhh+0x130>
    1b04:	84 2b       	or	r24, r20
    1b06:	82 2b       	or	r24, r18
    1b08:	80 93 6b 00 	sts	0x006B, r24	; 0x80006b <__TEXT_REGION_LENGTH__+0x7e006b>
    1b0c:	80 91 68 00 	lds	r24, 0x0068	; 0x800068 <__TEXT_REGION_LENGTH__+0x7e0068>
    1b10:	81 60       	ori	r24, 0x01	; 1
    1b12:	80 93 68 00 	sts	0x0068, r24	; 0x800068 <__TEXT_REGION_LENGTH__+0x7e0068>
    1b16:	2b 96       	adiw	r28, 0x0b	; 11
    1b18:	d0 93 7c 04 	sts	0x047C, r29	; 0x80047c <encPropsPerPCINT+0x1>
    1b1c:	c0 93 7b 04 	sts	0x047B, r28	; 0x80047b <encPropsPerPCINT>
    1b20:	52 c0       	rjmp	.+164    	; 0x1bc6 <_ZN14Rotary_Encoder6configEhhh+0x1fa>
    1b22:	47 b1       	in	r20, 0x07	; 7
    1b24:	81 e0       	ldi	r24, 0x01	; 1
    1b26:	90 e0       	ldi	r25, 0x00	; 0
    1b28:	bc 01       	movw	r22, r24
    1b2a:	0c 84       	ldd	r0, Y+12	; 0x0c
    1b2c:	02 c0       	rjmp	.+4      	; 0x1b32 <_ZN14Rotary_Encoder6configEhhh+0x166>
    1b2e:	66 0f       	add	r22, r22
    1b30:	77 1f       	adc	r23, r23
    1b32:	0a 94       	dec	r0
    1b34:	e2 f7       	brpl	.-8      	; 0x1b2e <_ZN14Rotary_Encoder6configEhhh+0x162>
    1b36:	9c 01       	movw	r18, r24
    1b38:	0d 84       	ldd	r0, Y+13	; 0x0d
    1b3a:	02 c0       	rjmp	.+4      	; 0x1b40 <_ZN14Rotary_Encoder6configEhhh+0x174>
    1b3c:	22 0f       	add	r18, r18
    1b3e:	33 1f       	adc	r19, r19
    1b40:	0a 94       	dec	r0
    1b42:	e2 f7       	brpl	.-8      	; 0x1b3c <_ZN14Rotary_Encoder6configEhhh+0x170>
    1b44:	26 2b       	or	r18, r22
    1b46:	20 95       	com	r18
    1b48:	24 23       	and	r18, r20
    1b4a:	27 b9       	out	0x07, r18	; 7
    1b4c:	38 b1       	in	r19, 0x08	; 8
    1b4e:	bc 01       	movw	r22, r24
    1b50:	0c 84       	ldd	r0, Y+12	; 0x0c
    1b52:	02 c0       	rjmp	.+4      	; 0x1b58 <_ZN14Rotary_Encoder6configEhhh+0x18c>
    1b54:	66 0f       	add	r22, r22
    1b56:	77 1f       	adc	r23, r23
    1b58:	0a 94       	dec	r0
    1b5a:	e2 f7       	brpl	.-8      	; 0x1b54 <_ZN14Rotary_Encoder6configEhhh+0x188>
    1b5c:	ac 01       	movw	r20, r24
    1b5e:	0d 84       	ldd	r0, Y+13	; 0x0d
    1b60:	02 c0       	rjmp	.+4      	; 0x1b66 <_ZN14Rotary_Encoder6configEhhh+0x19a>
    1b62:	44 0f       	add	r20, r20
    1b64:	55 1f       	adc	r21, r21
    1b66:	0a 94       	dec	r0
    1b68:	e2 f7       	brpl	.-8      	; 0x1b62 <_ZN14Rotary_Encoder6configEhhh+0x196>
    1b6a:	26 2f       	mov	r18, r22
    1b6c:	24 2b       	or	r18, r20
    1b6e:	23 2b       	or	r18, r19
    1b70:	28 b9       	out	0x08, r18	; 8
    1b72:	1b 87       	std	Y+11, r17	; 0x0b
    1b74:	20 91 6c 00 	lds	r18, 0x006C	; 0x80006c <__TEXT_REGION_LENGTH__+0x7e006c>
    1b78:	ac 01       	movw	r20, r24
    1b7a:	0c 84       	ldd	r0, Y+12	; 0x0c
    1b7c:	02 c0       	rjmp	.+4      	; 0x1b82 <_ZN14Rotary_Encoder6configEhhh+0x1b6>
    1b7e:	44 0f       	add	r20, r20
    1b80:	55 1f       	adc	r21, r21
    1b82:	0a 94       	dec	r0
    1b84:	e2 f7       	brpl	.-8      	; 0x1b7e <_ZN14Rotary_Encoder6configEhhh+0x1b2>
    1b86:	0d 84       	ldd	r0, Y+13	; 0x0d
    1b88:	02 c0       	rjmp	.+4      	; 0x1b8e <_ZN14Rotary_Encoder6configEhhh+0x1c2>
    1b8a:	88 0f       	add	r24, r24
    1b8c:	99 1f       	adc	r25, r25
    1b8e:	0a 94       	dec	r0
    1b90:	e2 f7       	brpl	.-8      	; 0x1b8a <_ZN14Rotary_Encoder6configEhhh+0x1be>
    1b92:	84 2b       	or	r24, r20
    1b94:	82 2b       	or	r24, r18
    1b96:	80 93 6c 00 	sts	0x006C, r24	; 0x80006c <__TEXT_REGION_LENGTH__+0x7e006c>
    1b9a:	80 91 68 00 	lds	r24, 0x0068	; 0x800068 <__TEXT_REGION_LENGTH__+0x7e0068>
    1b9e:	82 60       	ori	r24, 0x02	; 2
    1ba0:	80 93 68 00 	sts	0x0068, r24	; 0x800068 <__TEXT_REGION_LENGTH__+0x7e0068>
    1ba4:	2b 96       	adiw	r28, 0x0b	; 11
    1ba6:	d0 93 7e 04 	sts	0x047E, r29	; 0x80047e <encPropsPerPCINT+0x3>
    1baa:	c0 93 7d 04 	sts	0x047D, r28	; 0x80047d <encPropsPerPCINT+0x2>
    1bae:	0b c0       	rjmp	.+22     	; 0x1bc6 <_ZN14Rotary_Encoder6configEhhh+0x1fa>
    1bb0:	6f ee       	ldi	r22, 0xEF	; 239
    1bb2:	75 e0       	ldi	r23, 0x05	; 5
    1bb4:	81 e8       	ldi	r24, 0x81	; 129
    1bb6:	94 e0       	ldi	r25, 0x04	; 4
    1bb8:	df 91       	pop	r29
    1bba:	cf 91       	pop	r28
    1bbc:	1f 91       	pop	r17
    1bbe:	ff 90       	pop	r15
    1bc0:	ef 90       	pop	r14
    1bc2:	0c 94 01 14 	jmp	0x2802	; 0x2802 <_ZN5Print7printlnEPK19__FlashStringHelper>
    1bc6:	78 94       	sei
    1bc8:	df 91       	pop	r29
    1bca:	cf 91       	pop	r28
    1bcc:	1f 91       	pop	r17
    1bce:	ff 90       	pop	r15
    1bd0:	ef 90       	pop	r14
    1bd2:	08 95       	ret

00001bd4 <_ZN14Rotary_EncoderC1Ehhh>:
    1bd4:	0c 94 e6 0c 	jmp	0x19cc	; 0x19cc <_ZN14Rotary_Encoder6configEhhh>

00001bd8 <_Z24isrDetectEncRotationCodeP8encProps>:
    1bd8:	0f 93       	push	r16
    1bda:	1f 93       	push	r17
    1bdc:	cf 93       	push	r28
    1bde:	df 93       	push	r29
    1be0:	1f 92       	push	r1
    1be2:	cd b7       	in	r28, 0x3d	; 61
    1be4:	de b7       	in	r29, 0x3e	; 62
    1be6:	fc 01       	movw	r30, r24
    1be8:	19 82       	std	Y+1, r1	; 0x01
    1bea:	a0 81       	ld	r26, Z
    1bec:	b0 e0       	ldi	r27, 0x00	; 0
    1bee:	a8 58       	subi	r26, 0x88	; 136
    1bf0:	bb 4f       	sbci	r27, 0xFB	; 251
    1bf2:	8c 91       	ld	r24, X
    1bf4:	90 e0       	ldi	r25, 0x00	; 0
    1bf6:	01 80       	ldd	r0, Z+1	; 0x01
    1bf8:	02 c0       	rjmp	.+4      	; 0x1bfe <_Z24isrDetectEncRotationCodeP8encProps+0x26>
    1bfa:	95 95       	asr	r25
    1bfc:	87 95       	ror	r24
    1bfe:	0a 94       	dec	r0
    1c00:	e2 f7       	brpl	.-8      	; 0x1bfa <_Z24isrDetectEncRotationCodeP8encProps+0x22>
    1c02:	80 ff       	sbrs	r24, 0
    1c04:	03 c0       	rjmp	.+6      	; 0x1c0c <_Z24isrDetectEncRotationCodeP8encProps+0x34>
    1c06:	89 81       	ldd	r24, Y+1	; 0x01
    1c08:	81 60       	ori	r24, 0x01	; 1
    1c0a:	89 83       	std	Y+1, r24	; 0x01
    1c0c:	8c 91       	ld	r24, X
    1c0e:	90 e0       	ldi	r25, 0x00	; 0
    1c10:	02 80       	ldd	r0, Z+2	; 0x02
    1c12:	02 c0       	rjmp	.+4      	; 0x1c18 <_Z24isrDetectEncRotationCodeP8encProps+0x40>
    1c14:	95 95       	asr	r25
    1c16:	87 95       	ror	r24
    1c18:	0a 94       	dec	r0
    1c1a:	e2 f7       	brpl	.-8      	; 0x1c14 <_Z24isrDetectEncRotationCodeP8encProps+0x3c>
    1c1c:	80 ff       	sbrs	r24, 0
    1c1e:	03 c0       	rjmp	.+6      	; 0x1c26 <_Z24isrDetectEncRotationCodeP8encProps+0x4e>
    1c20:	89 81       	ldd	r24, Y+1	; 0x01
    1c22:	82 60       	ori	r24, 0x02	; 2
    1c24:	89 83       	std	Y+1, r24	; 0x01
    1c26:	85 81       	ldd	r24, Z+5	; 0x05
    1c28:	99 81       	ldd	r25, Y+1	; 0x01
    1c2a:	89 17       	cp	r24, r25
    1c2c:	11 f1       	breq	.+68     	; 0x1c72 <_Z24isrDetectEncRotationCodeP8encProps+0x9a>
    1c2e:	8f 01       	movw	r16, r30
    1c30:	99 81       	ldd	r25, Y+1	; 0x01
    1c32:	91 11       	cpse	r25, r1
    1c34:	04 c0       	rjmp	.+8      	; 0x1c3e <_Z24isrDetectEncRotationCodeP8encProps+0x66>
    1c36:	81 30       	cpi	r24, 0x01	; 1
    1c38:	c9 f4       	brne	.+50     	; 0x1c6c <_Z24isrDetectEncRotationCodeP8encProps+0x94>
    1c3a:	63 e0       	ldi	r22, 0x03	; 3
    1c3c:	06 c0       	rjmp	.+12     	; 0x1c4a <_Z24isrDetectEncRotationCodeP8encProps+0x72>
    1c3e:	99 81       	ldd	r25, Y+1	; 0x01
    1c40:	91 30       	cpi	r25, 0x01	; 1
    1c42:	49 f4       	brne	.+18     	; 0x1c56 <_Z24isrDetectEncRotationCodeP8encProps+0x7e>
    1c44:	81 11       	cpse	r24, r1
    1c46:	12 c0       	rjmp	.+36     	; 0x1c6c <_Z24isrDetectEncRotationCodeP8encProps+0x94>
    1c48:	62 e0       	ldi	r22, 0x02	; 2
    1c4a:	f8 01       	movw	r30, r16
    1c4c:	83 81       	ldd	r24, Z+3	; 0x03
    1c4e:	94 81       	ldd	r25, Z+4	; 0x04
    1c50:	0e 94 28 0f 	call	0x1e50	; 0x1e50 <_ZN9fifo_byte5enqueEh>
    1c54:	0b c0       	rjmp	.+22     	; 0x1c6c <_Z24isrDetectEncRotationCodeP8encProps+0x94>
    1c56:	99 81       	ldd	r25, Y+1	; 0x01
    1c58:	93 30       	cpi	r25, 0x03	; 3
    1c5a:	19 f4       	brne	.+6      	; 0x1c62 <_Z24isrDetectEncRotationCodeP8encProps+0x8a>
    1c5c:	82 30       	cpi	r24, 0x02	; 2
    1c5e:	31 f4       	brne	.+12     	; 0x1c6c <_Z24isrDetectEncRotationCodeP8encProps+0x94>
    1c60:	ec cf       	rjmp	.-40     	; 0x1c3a <_Z24isrDetectEncRotationCodeP8encProps+0x62>
    1c62:	99 81       	ldd	r25, Y+1	; 0x01
    1c64:	92 30       	cpi	r25, 0x02	; 2
    1c66:	11 f4       	brne	.+4      	; 0x1c6c <_Z24isrDetectEncRotationCodeP8encProps+0x94>
    1c68:	83 30       	cpi	r24, 0x03	; 3
    1c6a:	71 f3       	breq	.-36     	; 0x1c48 <_Z24isrDetectEncRotationCodeP8encProps+0x70>
    1c6c:	89 81       	ldd	r24, Y+1	; 0x01
    1c6e:	f8 01       	movw	r30, r16
    1c70:	85 83       	std	Z+5, r24	; 0x05
    1c72:	0f 90       	pop	r0
    1c74:	df 91       	pop	r29
    1c76:	cf 91       	pop	r28
    1c78:	1f 91       	pop	r17
    1c7a:	0f 91       	pop	r16
    1c7c:	08 95       	ret

00001c7e <__vector_3>:
    1c7e:	1f 92       	push	r1
    1c80:	0f 92       	push	r0
    1c82:	0f b6       	in	r0, 0x3f	; 63
    1c84:	0f 92       	push	r0
    1c86:	11 24       	eor	r1, r1
    1c88:	2f 93       	push	r18
    1c8a:	3f 93       	push	r19
    1c8c:	4f 93       	push	r20
    1c8e:	5f 93       	push	r21
    1c90:	6f 93       	push	r22
    1c92:	7f 93       	push	r23
    1c94:	8f 93       	push	r24
    1c96:	9f 93       	push	r25
    1c98:	af 93       	push	r26
    1c9a:	bf 93       	push	r27
    1c9c:	ef 93       	push	r30
    1c9e:	ff 93       	push	r31
    1ca0:	83 b1       	in	r24, 0x03	; 3
    1ca2:	80 93 78 04 	sts	0x0478, r24	; 0x800478 <PCINT_PORT_VAL>
    1ca6:	80 91 7b 04 	lds	r24, 0x047B	; 0x80047b <encPropsPerPCINT>
    1caa:	90 91 7c 04 	lds	r25, 0x047C	; 0x80047c <encPropsPerPCINT+0x1>
    1cae:	00 97       	sbiw	r24, 0x00	; 0
    1cb0:	11 f0       	breq	.+4      	; 0x1cb6 <__vector_3+0x38>
    1cb2:	0e 94 ec 0d 	call	0x1bd8	; 0x1bd8 <_Z24isrDetectEncRotationCodeP8encProps>
    1cb6:	ff 91       	pop	r31
    1cb8:	ef 91       	pop	r30
    1cba:	bf 91       	pop	r27
    1cbc:	af 91       	pop	r26
    1cbe:	9f 91       	pop	r25
    1cc0:	8f 91       	pop	r24
    1cc2:	7f 91       	pop	r23
    1cc4:	6f 91       	pop	r22
    1cc6:	5f 91       	pop	r21
    1cc8:	4f 91       	pop	r20
    1cca:	3f 91       	pop	r19
    1ccc:	2f 91       	pop	r18
    1cce:	0f 90       	pop	r0
    1cd0:	0f be       	out	0x3f, r0	; 63
    1cd2:	0f 90       	pop	r0
    1cd4:	1f 90       	pop	r1
    1cd6:	18 95       	reti

00001cd8 <__vector_4>:
    1cd8:	1f 92       	push	r1
    1cda:	0f 92       	push	r0
    1cdc:	0f b6       	in	r0, 0x3f	; 63
    1cde:	0f 92       	push	r0
    1ce0:	11 24       	eor	r1, r1
    1ce2:	2f 93       	push	r18
    1ce4:	3f 93       	push	r19
    1ce6:	4f 93       	push	r20
    1ce8:	5f 93       	push	r21
    1cea:	6f 93       	push	r22
    1cec:	7f 93       	push	r23
    1cee:	8f 93       	push	r24
    1cf0:	9f 93       	push	r25
    1cf2:	af 93       	push	r26
    1cf4:	bf 93       	push	r27
    1cf6:	ef 93       	push	r30
    1cf8:	ff 93       	push	r31
    1cfa:	86 b1       	in	r24, 0x06	; 6
    1cfc:	80 93 79 04 	sts	0x0479, r24	; 0x800479 <PCINT_PORT_VAL+0x1>
    1d00:	80 91 7d 04 	lds	r24, 0x047D	; 0x80047d <encPropsPerPCINT+0x2>
    1d04:	90 91 7e 04 	lds	r25, 0x047E	; 0x80047e <encPropsPerPCINT+0x3>
    1d08:	00 97       	sbiw	r24, 0x00	; 0
    1d0a:	11 f0       	breq	.+4      	; 0x1d10 <__vector_4+0x38>
    1d0c:	0e 94 ec 0d 	call	0x1bd8	; 0x1bd8 <_Z24isrDetectEncRotationCodeP8encProps>
    1d10:	ff 91       	pop	r31
    1d12:	ef 91       	pop	r30
    1d14:	bf 91       	pop	r27
    1d16:	af 91       	pop	r26
    1d18:	9f 91       	pop	r25
    1d1a:	8f 91       	pop	r24
    1d1c:	7f 91       	pop	r23
    1d1e:	6f 91       	pop	r22
    1d20:	5f 91       	pop	r21
    1d22:	4f 91       	pop	r20
    1d24:	3f 91       	pop	r19
    1d26:	2f 91       	pop	r18
    1d28:	0f 90       	pop	r0
    1d2a:	0f be       	out	0x3f, r0	; 63
    1d2c:	0f 90       	pop	r0
    1d2e:	1f 90       	pop	r1
    1d30:	18 95       	reti

00001d32 <__vector_5>:
    1d32:	1f 92       	push	r1
    1d34:	0f 92       	push	r0
    1d36:	0f b6       	in	r0, 0x3f	; 63
    1d38:	0f 92       	push	r0
    1d3a:	11 24       	eor	r1, r1
    1d3c:	2f 93       	push	r18
    1d3e:	3f 93       	push	r19
    1d40:	4f 93       	push	r20
    1d42:	5f 93       	push	r21
    1d44:	6f 93       	push	r22
    1d46:	7f 93       	push	r23
    1d48:	8f 93       	push	r24
    1d4a:	9f 93       	push	r25
    1d4c:	af 93       	push	r26
    1d4e:	bf 93       	push	r27
    1d50:	ef 93       	push	r30
    1d52:	ff 93       	push	r31
    1d54:	89 b1       	in	r24, 0x09	; 9
    1d56:	80 93 7a 04 	sts	0x047A, r24	; 0x80047a <PCINT_PORT_VAL+0x2>
    1d5a:	80 91 7f 04 	lds	r24, 0x047F	; 0x80047f <encPropsPerPCINT+0x4>
    1d5e:	90 91 80 04 	lds	r25, 0x0480	; 0x800480 <encPropsPerPCINT+0x5>
    1d62:	00 97       	sbiw	r24, 0x00	; 0
    1d64:	11 f0       	breq	.+4      	; 0x1d6a <__vector_5+0x38>
    1d66:	0e 94 ec 0d 	call	0x1bd8	; 0x1bd8 <_Z24isrDetectEncRotationCodeP8encProps>
    1d6a:	ff 91       	pop	r31
    1d6c:	ef 91       	pop	r30
    1d6e:	bf 91       	pop	r27
    1d70:	af 91       	pop	r26
    1d72:	9f 91       	pop	r25
    1d74:	8f 91       	pop	r24
    1d76:	7f 91       	pop	r23
    1d78:	6f 91       	pop	r22
    1d7a:	5f 91       	pop	r21
    1d7c:	4f 91       	pop	r20
    1d7e:	3f 91       	pop	r19
    1d80:	2f 91       	pop	r18
    1d82:	0f 90       	pop	r0
    1d84:	0f be       	out	0x3f, r0	; 63
    1d86:	0f 90       	pop	r0
    1d88:	1f 90       	pop	r1
    1d8a:	18 95       	reti

00001d8c <_ZN9fifo_byte4initEi>:
    1d8c:	0f 93       	push	r16
    1d8e:	1f 93       	push	r17
    1d90:	cf 93       	push	r28
    1d92:	df 93       	push	r29
    1d94:	ec 01       	movw	r28, r24
    1d96:	16 2f       	mov	r17, r22
    1d98:	07 2f       	mov	r16, r23
    1d9a:	81 e0       	ldi	r24, 0x01	; 1
    1d9c:	90 e0       	ldi	r25, 0x00	; 0
    1d9e:	0e 94 87 13 	call	0x270e	; 0x270e <_Znwj>
    1da2:	fc 01       	movw	r30, r24
    1da4:	10 83       	st	Z, r17
    1da6:	99 87       	std	Y+9, r25	; 0x09
    1da8:	88 87       	std	Y+8, r24	; 0x08
    1daa:	1e 83       	std	Y+6, r17	; 0x06
    1dac:	0f 83       	std	Y+7, r16	; 0x07
    1dae:	8f ef       	ldi	r24, 0xFF	; 255
    1db0:	9f ef       	ldi	r25, 0xFF	; 255
    1db2:	9d 83       	std	Y+5, r25	; 0x05
    1db4:	8c 83       	std	Y+4, r24	; 0x04
    1db6:	9b 83       	std	Y+3, r25	; 0x03
    1db8:	8a 83       	std	Y+2, r24	; 0x02
    1dba:	df 91       	pop	r29
    1dbc:	cf 91       	pop	r28
    1dbe:	1f 91       	pop	r17
    1dc0:	0f 91       	pop	r16
    1dc2:	08 95       	ret

00001dc4 <_ZN4fifo7isEmptyEv>:
    1dc4:	fc 01       	movw	r30, r24
    1dc6:	82 81       	ldd	r24, Z+2	; 0x02
    1dc8:	93 81       	ldd	r25, Z+3	; 0x03
    1dca:	01 96       	adiw	r24, 0x01	; 1
    1dcc:	31 f4       	brne	.+12     	; 0x1dda <_ZN4fifo7isEmptyEv+0x16>
    1dce:	81 e0       	ldi	r24, 0x01	; 1
    1dd0:	24 81       	ldd	r18, Z+4	; 0x04
    1dd2:	35 81       	ldd	r19, Z+5	; 0x05
    1dd4:	2f 3f       	cpi	r18, 0xFF	; 255
    1dd6:	3f 4f       	sbci	r19, 0xFF	; 255
    1dd8:	09 f0       	breq	.+2      	; 0x1ddc <_ZN4fifo7isEmptyEv+0x18>
    1dda:	80 e0       	ldi	r24, 0x00	; 0
    1ddc:	08 95       	ret

00001dde <_ZN9fifo_byteC1Ei>:
    1dde:	20 e2       	ldi	r18, 0x20	; 32
    1de0:	34 e0       	ldi	r19, 0x04	; 4
    1de2:	fc 01       	movw	r30, r24
    1de4:	31 83       	std	Z+1, r19	; 0x01
    1de6:	20 83       	st	Z, r18
    1de8:	0c 94 c6 0e 	jmp	0x1d8c	; 0x1d8c <_ZN9fifo_byte4initEi>

00001dec <_ZN9fifo_byte5dequeEv>:
    1dec:	fc 01       	movw	r30, r24
    1dee:	22 81       	ldd	r18, Z+2	; 0x02
    1df0:	33 81       	ldd	r19, Z+3	; 0x03
    1df2:	44 81       	ldd	r20, Z+4	; 0x04
    1df4:	55 81       	ldd	r21, Z+5	; 0x05
    1df6:	2f 3f       	cpi	r18, 0xFF	; 255
    1df8:	8f ef       	ldi	r24, 0xFF	; 255
    1dfa:	38 07       	cpc	r19, r24
    1dfc:	21 f4       	brne	.+8      	; 0x1e06 <_ZN9fifo_byte5dequeEv+0x1a>
    1dfe:	4f 3f       	cpi	r20, 0xFF	; 255
    1e00:	8f ef       	ldi	r24, 0xFF	; 255
    1e02:	58 07       	cpc	r21, r24
    1e04:	19 f1       	breq	.+70     	; 0x1e4c <_ZN9fifo_byte5dequeEv+0x60>
    1e06:	80 85       	ldd	r24, Z+8	; 0x08
    1e08:	91 85       	ldd	r25, Z+9	; 0x09
    1e0a:	dc 01       	movw	r26, r24
    1e0c:	a2 0f       	add	r26, r18
    1e0e:	b3 1f       	adc	r27, r19
    1e10:	24 17       	cp	r18, r20
    1e12:	35 07       	cpc	r19, r21
    1e14:	31 f4       	brne	.+12     	; 0x1e22 <_ZN9fifo_byte5dequeEv+0x36>
    1e16:	9c 91       	ld	r25, X
    1e18:	2f ef       	ldi	r18, 0xFF	; 255
    1e1a:	3f ef       	ldi	r19, 0xFF	; 255
    1e1c:	35 83       	std	Z+5, r19	; 0x05
    1e1e:	24 83       	std	Z+4, r18	; 0x04
    1e20:	12 c0       	rjmp	.+36     	; 0x1e46 <_ZN9fifo_byte5dequeEv+0x5a>
    1e22:	42 17       	cp	r20, r18
    1e24:	53 07       	cpc	r21, r19
    1e26:	64 f4       	brge	.+24     	; 0x1e40 <_ZN9fifo_byte5dequeEv+0x54>
    1e28:	46 81       	ldd	r20, Z+6	; 0x06
    1e2a:	57 81       	ldd	r21, Z+7	; 0x07
    1e2c:	41 50       	subi	r20, 0x01	; 1
    1e2e:	51 09       	sbc	r21, r1
    1e30:	24 17       	cp	r18, r20
    1e32:	35 07       	cpc	r19, r21
    1e34:	29 f4       	brne	.+10     	; 0x1e40 <_ZN9fifo_byte5dequeEv+0x54>
    1e36:	9c 91       	ld	r25, X
    1e38:	13 82       	std	Z+3, r1	; 0x03
    1e3a:	12 82       	std	Z+2, r1	; 0x02
    1e3c:	89 2f       	mov	r24, r25
    1e3e:	08 95       	ret
    1e40:	9c 91       	ld	r25, X
    1e42:	2f 5f       	subi	r18, 0xFF	; 255
    1e44:	3f 4f       	sbci	r19, 0xFF	; 255
    1e46:	33 83       	std	Z+3, r19	; 0x03
    1e48:	22 83       	std	Z+2, r18	; 0x02
    1e4a:	f8 cf       	rjmp	.-16     	; 0x1e3c <_ZN9fifo_byte5dequeEv+0x50>
    1e4c:	80 e0       	ldi	r24, 0x00	; 0
    1e4e:	08 95       	ret

00001e50 <_ZN9fifo_byte5enqueEh>:
    1e50:	fc 01       	movw	r30, r24
    1e52:	22 81       	ldd	r18, Z+2	; 0x02
    1e54:	33 81       	ldd	r19, Z+3	; 0x03
    1e56:	84 81       	ldd	r24, Z+4	; 0x04
    1e58:	95 81       	ldd	r25, Z+5	; 0x05
    1e5a:	21 15       	cp	r18, r1
    1e5c:	31 05       	cpc	r19, r1
    1e5e:	39 f4       	brne	.+14     	; 0x1e6e <_ZN9fifo_byte5enqueEh+0x1e>
    1e60:	46 81       	ldd	r20, Z+6	; 0x06
    1e62:	57 81       	ldd	r21, Z+7	; 0x07
    1e64:	41 50       	subi	r20, 0x01	; 1
    1e66:	51 09       	sbc	r21, r1
    1e68:	84 17       	cp	r24, r20
    1e6a:	95 07       	cpc	r25, r21
    1e6c:	19 f1       	breq	.+70     	; 0x1eb4 <_ZN9fifo_byte5enqueEh+0x64>
    1e6e:	a9 01       	movw	r20, r18
    1e70:	41 50       	subi	r20, 0x01	; 1
    1e72:	51 09       	sbc	r21, r1
    1e74:	84 17       	cp	r24, r20
    1e76:	95 07       	cpc	r25, r21
    1e78:	e9 f0       	breq	.+58     	; 0x1eb4 <_ZN9fifo_byte5enqueEh+0x64>
    1e7a:	46 81       	ldd	r20, Z+6	; 0x06
    1e7c:	57 81       	ldd	r21, Z+7	; 0x07
    1e7e:	41 50       	subi	r20, 0x01	; 1
    1e80:	51 09       	sbc	r21, r1
    1e82:	84 17       	cp	r24, r20
    1e84:	95 07       	cpc	r25, r21
    1e86:	31 f4       	brne	.+12     	; 0x1e94 <_ZN9fifo_byte5enqueEh+0x44>
    1e88:	12 16       	cp	r1, r18
    1e8a:	13 06       	cpc	r1, r19
    1e8c:	1c f4       	brge	.+6      	; 0x1e94 <_ZN9fifo_byte5enqueEh+0x44>
    1e8e:	15 82       	std	Z+5, r1	; 0x05
    1e90:	14 82       	std	Z+4, r1	; 0x04
    1e92:	03 c0       	rjmp	.+6      	; 0x1e9a <_ZN9fifo_byte5enqueEh+0x4a>
    1e94:	01 96       	adiw	r24, 0x01	; 1
    1e96:	95 83       	std	Z+5, r25	; 0x05
    1e98:	84 83       	std	Z+4, r24	; 0x04
    1e9a:	a0 85       	ldd	r26, Z+8	; 0x08
    1e9c:	b1 85       	ldd	r27, Z+9	; 0x09
    1e9e:	84 81       	ldd	r24, Z+4	; 0x04
    1ea0:	95 81       	ldd	r25, Z+5	; 0x05
    1ea2:	a8 0f       	add	r26, r24
    1ea4:	b9 1f       	adc	r27, r25
    1ea6:	6c 93       	st	X, r22
    1ea8:	82 81       	ldd	r24, Z+2	; 0x02
    1eaa:	93 81       	ldd	r25, Z+3	; 0x03
    1eac:	01 96       	adiw	r24, 0x01	; 1
    1eae:	11 f4       	brne	.+4      	; 0x1eb4 <_ZN9fifo_byte5enqueEh+0x64>
    1eb0:	13 82       	std	Z+3, r1	; 0x03
    1eb2:	12 82       	std	Z+2, r1	; 0x02
    1eb4:	08 95       	ret

00001eb6 <_ZN4GPIO11parsePinMapEh>:
    1eb6:	fc 01       	movw	r30, r24
    1eb8:	68 30       	cpi	r22, 0x08	; 8
    1eba:	18 f4       	brcc	.+6      	; 0x1ec2 <_ZN4GPIO11parsePinMapEh+0xc>
    1ebc:	8b e2       	ldi	r24, 0x2B	; 43
    1ebe:	90 e0       	ldi	r25, 0x00	; 0
    1ec0:	0f c0       	rjmp	.+30     	; 0x1ee0 <_ZN4GPIO11parsePinMapEh+0x2a>
    1ec2:	88 ef       	ldi	r24, 0xF8	; 248
    1ec4:	86 0f       	add	r24, r22
    1ec6:	86 30       	cpi	r24, 0x06	; 6
    1ec8:	30 f4       	brcc	.+12     	; 0x1ed6 <_ZN4GPIO11parsePinMapEh+0x20>
    1eca:	25 e2       	ldi	r18, 0x25	; 37
    1ecc:	30 e0       	ldi	r19, 0x00	; 0
    1ece:	31 83       	std	Z+1, r19	; 0x01
    1ed0:	20 83       	st	Z, r18
    1ed2:	82 83       	std	Z+2, r24	; 0x02
    1ed4:	08 95       	ret
    1ed6:	6e 50       	subi	r22, 0x0E	; 14
    1ed8:	66 30       	cpi	r22, 0x06	; 6
    1eda:	28 f4       	brcc	.+10     	; 0x1ee6 <_ZN4GPIO11parsePinMapEh+0x30>
    1edc:	88 e2       	ldi	r24, 0x28	; 40
    1ede:	90 e0       	ldi	r25, 0x00	; 0
    1ee0:	91 83       	std	Z+1, r25	; 0x01
    1ee2:	80 83       	st	Z, r24
    1ee4:	62 83       	std	Z+2, r22	; 0x02
    1ee6:	08 95       	ret

00001ee8 <_ZN4GPIO16setInputPullDownEv>:
    1ee8:	fc 01       	movw	r30, r24
    1eea:	a0 81       	ld	r26, Z
    1eec:	b1 81       	ldd	r27, Z+1	; 0x01
    1eee:	9e 91       	ld	r25, -X
    1ef0:	21 e0       	ldi	r18, 0x01	; 1
    1ef2:	30 e0       	ldi	r19, 0x00	; 0
    1ef4:	a9 01       	movw	r20, r18
    1ef6:	02 80       	ldd	r0, Z+2	; 0x02
    1ef8:	02 c0       	rjmp	.+4      	; 0x1efe <_ZN4GPIO16setInputPullDownEv+0x16>
    1efa:	44 0f       	add	r20, r20
    1efc:	55 1f       	adc	r21, r21
    1efe:	0a 94       	dec	r0
    1f00:	e2 f7       	brpl	.-8      	; 0x1efa <_ZN4GPIO16setInputPullDownEv+0x12>
    1f02:	84 2f       	mov	r24, r20
    1f04:	80 95       	com	r24
    1f06:	89 23       	and	r24, r25
    1f08:	8c 93       	st	X, r24
    1f0a:	a0 81       	ld	r26, Z
    1f0c:	b1 81       	ldd	r27, Z+1	; 0x01
    1f0e:	8c 91       	ld	r24, X
    1f10:	02 80       	ldd	r0, Z+2	; 0x02
    1f12:	02 c0       	rjmp	.+4      	; 0x1f18 <_ZN4GPIO16setInputPullDownEv+0x30>
    1f14:	22 0f       	add	r18, r18
    1f16:	33 1f       	adc	r19, r19
    1f18:	0a 94       	dec	r0
    1f1a:	e2 f7       	brpl	.-8      	; 0x1f14 <_ZN4GPIO16setInputPullDownEv+0x2c>
    1f1c:	20 95       	com	r18
    1f1e:	28 23       	and	r18, r24
    1f20:	2c 93       	st	X, r18
    1f22:	08 95       	ret

00001f24 <_ZN4GPIO14setInputPullUpEv>:
    1f24:	fc 01       	movw	r30, r24
    1f26:	a0 81       	ld	r26, Z
    1f28:	b1 81       	ldd	r27, Z+1	; 0x01
    1f2a:	9e 91       	ld	r25, -X
    1f2c:	21 e0       	ldi	r18, 0x01	; 1
    1f2e:	30 e0       	ldi	r19, 0x00	; 0
    1f30:	a9 01       	movw	r20, r18
    1f32:	02 80       	ldd	r0, Z+2	; 0x02
    1f34:	02 c0       	rjmp	.+4      	; 0x1f3a <_ZN4GPIO14setInputPullUpEv+0x16>
    1f36:	44 0f       	add	r20, r20
    1f38:	55 1f       	adc	r21, r21
    1f3a:	0a 94       	dec	r0
    1f3c:	e2 f7       	brpl	.-8      	; 0x1f36 <_ZN4GPIO14setInputPullUpEv+0x12>
    1f3e:	84 2f       	mov	r24, r20
    1f40:	80 95       	com	r24
    1f42:	89 23       	and	r24, r25
    1f44:	8c 93       	st	X, r24
    1f46:	a0 81       	ld	r26, Z
    1f48:	b1 81       	ldd	r27, Z+1	; 0x01
    1f4a:	8c 91       	ld	r24, X
    1f4c:	02 80       	ldd	r0, Z+2	; 0x02
    1f4e:	02 c0       	rjmp	.+4      	; 0x1f54 <_ZN4GPIO14setInputPullUpEv+0x30>
    1f50:	22 0f       	add	r18, r18
    1f52:	33 1f       	adc	r19, r19
    1f54:	0a 94       	dec	r0
    1f56:	e2 f7       	brpl	.-8      	; 0x1f50 <_ZN4GPIO14setInputPullUpEv+0x2c>
    1f58:	28 2b       	or	r18, r24
    1f5a:	2c 93       	st	X, r18
    1f5c:	08 95       	ret

00001f5e <_ZN4GPIOC1Eh>:
    1f5e:	0c 94 5b 0f 	jmp	0x1eb6	; 0x1eb6 <_ZN4GPIO11parsePinMapEh>

00001f62 <_ZN14HardwareSerial9availableEv>:
    1f62:	fc 01       	movw	r30, r24
    1f64:	24 85       	ldd	r18, Z+12	; 0x0c
    1f66:	35 85       	ldd	r19, Z+13	; 0x0d
    1f68:	f9 01       	movw	r30, r18
    1f6a:	e0 5c       	subi	r30, 0xC0	; 192
    1f6c:	ff 4f       	sbci	r31, 0xFF	; 255
    1f6e:	80 81       	ld	r24, Z
    1f70:	91 81       	ldd	r25, Z+1	; 0x01
    1f72:	32 96       	adiw	r30, 0x02	; 2
    1f74:	20 81       	ld	r18, Z
    1f76:	31 81       	ldd	r19, Z+1	; 0x01
    1f78:	82 1b       	sub	r24, r18
    1f7a:	93 0b       	sbc	r25, r19
    1f7c:	8f 73       	andi	r24, 0x3F	; 63
    1f7e:	99 27       	eor	r25, r25
    1f80:	08 95       	ret

00001f82 <_ZN14HardwareSerial4peekEv>:
    1f82:	dc 01       	movw	r26, r24
    1f84:	1c 96       	adiw	r26, 0x0c	; 12
    1f86:	ed 91       	ld	r30, X+
    1f88:	fc 91       	ld	r31, X
    1f8a:	1d 97       	sbiw	r26, 0x0d	; 13
    1f8c:	df 01       	movw	r26, r30
    1f8e:	a0 5c       	subi	r26, 0xC0	; 192
    1f90:	bf 4f       	sbci	r27, 0xFF	; 255
    1f92:	2d 91       	ld	r18, X+
    1f94:	3c 91       	ld	r19, X
    1f96:	11 97       	sbiw	r26, 0x01	; 1
    1f98:	12 96       	adiw	r26, 0x02	; 2
    1f9a:	8d 91       	ld	r24, X+
    1f9c:	9c 91       	ld	r25, X
    1f9e:	11 97       	sbiw	r26, 0x01	; 1
    1fa0:	28 17       	cp	r18, r24
    1fa2:	39 07       	cpc	r19, r25
    1fa4:	39 f0       	breq	.+14     	; 0x1fb4 <_ZN14HardwareSerial4peekEv+0x32>
    1fa6:	8d 91       	ld	r24, X+
    1fa8:	9c 91       	ld	r25, X
    1faa:	e8 0f       	add	r30, r24
    1fac:	f9 1f       	adc	r31, r25
    1fae:	80 81       	ld	r24, Z
    1fb0:	90 e0       	ldi	r25, 0x00	; 0
    1fb2:	08 95       	ret
    1fb4:	8f ef       	ldi	r24, 0xFF	; 255
    1fb6:	9f ef       	ldi	r25, 0xFF	; 255
    1fb8:	08 95       	ret

00001fba <_ZN14HardwareSerial4readEv>:
    1fba:	fc 01       	movw	r30, r24
    1fbc:	a4 85       	ldd	r26, Z+12	; 0x0c
    1fbe:	b5 85       	ldd	r27, Z+13	; 0x0d
    1fc0:	fd 01       	movw	r30, r26
    1fc2:	e0 5c       	subi	r30, 0xC0	; 192
    1fc4:	ff 4f       	sbci	r31, 0xFF	; 255
    1fc6:	20 81       	ld	r18, Z
    1fc8:	31 81       	ldd	r19, Z+1	; 0x01
    1fca:	32 96       	adiw	r30, 0x02	; 2
    1fcc:	80 81       	ld	r24, Z
    1fce:	91 81       	ldd	r25, Z+1	; 0x01
    1fd0:	28 17       	cp	r18, r24
    1fd2:	39 07       	cpc	r19, r25
    1fd4:	79 f0       	breq	.+30     	; 0x1ff4 <_ZN14HardwareSerial4readEv+0x3a>
    1fd6:	80 81       	ld	r24, Z
    1fd8:	91 81       	ldd	r25, Z+1	; 0x01
    1fda:	a8 0f       	add	r26, r24
    1fdc:	b9 1f       	adc	r27, r25
    1fde:	8c 91       	ld	r24, X
    1fe0:	20 81       	ld	r18, Z
    1fe2:	31 81       	ldd	r19, Z+1	; 0x01
    1fe4:	2f 5f       	subi	r18, 0xFF	; 255
    1fe6:	3f 4f       	sbci	r19, 0xFF	; 255
    1fe8:	2f 73       	andi	r18, 0x3F	; 63
    1fea:	33 27       	eor	r19, r19
    1fec:	31 83       	std	Z+1, r19	; 0x01
    1fee:	20 83       	st	Z, r18
    1ff0:	90 e0       	ldi	r25, 0x00	; 0
    1ff2:	08 95       	ret
    1ff4:	8f ef       	ldi	r24, 0xFF	; 255
    1ff6:	9f ef       	ldi	r25, 0xFF	; 255
    1ff8:	08 95       	ret

00001ffa <_ZN14HardwareSerial5flushEv>:
    1ffa:	fc 01       	movw	r30, r24
    1ffc:	86 85       	ldd	r24, Z+14	; 0x0e
    1ffe:	97 85       	ldd	r25, Z+15	; 0x0f
    2000:	fc 01       	movw	r30, r24
    2002:	e0 5c       	subi	r30, 0xC0	; 192
    2004:	ff 4f       	sbci	r31, 0xFF	; 255
    2006:	dc 01       	movw	r26, r24
    2008:	ae 5b       	subi	r26, 0xBE	; 190
    200a:	bf 4f       	sbci	r27, 0xFF	; 255
    200c:	40 81       	ld	r20, Z
    200e:	51 81       	ldd	r21, Z+1	; 0x01
    2010:	2d 91       	ld	r18, X+
    2012:	3c 91       	ld	r19, X
    2014:	11 97       	sbiw	r26, 0x01	; 1
    2016:	42 17       	cp	r20, r18
    2018:	53 07       	cpc	r21, r19
    201a:	c1 f7       	brne	.-16     	; 0x200c <_ZN14HardwareSerial5flushEv+0x12>
    201c:	08 95       	ret

0000201e <_ZN14HardwareSerial5writeEh>:
    201e:	0f 93       	push	r16
    2020:	1f 93       	push	r17
    2022:	cf 93       	push	r28
    2024:	df 93       	push	r29
    2026:	dc 01       	movw	r26, r24
    2028:	92 96       	adiw	r26, 0x22	; 34
    202a:	8c 91       	ld	r24, X
    202c:	92 97       	sbiw	r26, 0x22	; 34
    202e:	81 30       	cpi	r24, 0x01	; 1
    2030:	c9 f1       	breq	.+114    	; 0x20a4 <_ZN14HardwareSerial5writeEh+0x86>
    2032:	1e 96       	adiw	r26, 0x0e	; 14
    2034:	ed 91       	ld	r30, X+
    2036:	fc 91       	ld	r31, X
    2038:	1f 97       	sbiw	r26, 0x0f	; 15
    203a:	8f 01       	movw	r16, r30
    203c:	00 5c       	subi	r16, 0xC0	; 192
    203e:	1f 4f       	sbci	r17, 0xFF	; 255
    2040:	e8 01       	movw	r28, r16
    2042:	28 81       	ld	r18, Y
    2044:	39 81       	ldd	r19, Y+1	; 0x01
    2046:	2f 5f       	subi	r18, 0xFF	; 255
    2048:	3f 4f       	sbci	r19, 0xFF	; 255
    204a:	2f 73       	andi	r18, 0x3F	; 63
    204c:	33 27       	eor	r19, r19
    204e:	af 01       	movw	r20, r30
    2050:	4e 5b       	subi	r20, 0xBE	; 190
    2052:	5f 4f       	sbci	r21, 0xFF	; 255
    2054:	ea 01       	movw	r28, r20
    2056:	88 81       	ld	r24, Y
    2058:	99 81       	ldd	r25, Y+1	; 0x01
    205a:	82 17       	cp	r24, r18
    205c:	93 07       	cpc	r25, r19
    205e:	d1 f3       	breq	.-12     	; 0x2054 <_ZN14HardwareSerial5writeEh+0x36>
    2060:	e8 01       	movw	r28, r16
    2062:	48 81       	ld	r20, Y
    2064:	59 81       	ldd	r21, Y+1	; 0x01
    2066:	e4 0f       	add	r30, r20
    2068:	f5 1f       	adc	r31, r21
    206a:	60 83       	st	Z, r22
    206c:	1e 96       	adiw	r26, 0x0e	; 14
    206e:	ed 91       	ld	r30, X+
    2070:	fc 91       	ld	r31, X
    2072:	1f 97       	sbiw	r26, 0x0f	; 15
    2074:	e0 5c       	subi	r30, 0xC0	; 192
    2076:	ff 4f       	sbci	r31, 0xFF	; 255
    2078:	31 83       	std	Z+1, r19	; 0x01
    207a:	20 83       	st	Z, r18
    207c:	56 96       	adiw	r26, 0x16	; 22
    207e:	ed 91       	ld	r30, X+
    2080:	fc 91       	ld	r31, X
    2082:	57 97       	sbiw	r26, 0x17	; 23
    2084:	40 81       	ld	r20, Z
    2086:	21 e0       	ldi	r18, 0x01	; 1
    2088:	30 e0       	ldi	r19, 0x00	; 0
    208a:	c9 01       	movw	r24, r18
    208c:	5d 96       	adiw	r26, 0x1d	; 29
    208e:	0c 90       	ld	r0, X
    2090:	02 c0       	rjmp	.+4      	; 0x2096 <_ZN14HardwareSerial5writeEh+0x78>
    2092:	88 0f       	add	r24, r24
    2094:	99 1f       	adc	r25, r25
    2096:	0a 94       	dec	r0
    2098:	e2 f7       	brpl	.-8      	; 0x2092 <_ZN14HardwareSerial5writeEh+0x74>
    209a:	84 2b       	or	r24, r20
    209c:	80 83       	st	Z, r24
    209e:	81 e0       	ldi	r24, 0x01	; 1
    20a0:	90 e0       	ldi	r25, 0x00	; 0
    20a2:	02 c0       	rjmp	.+4      	; 0x20a8 <_ZN14HardwareSerial5writeEh+0x8a>
    20a4:	80 e0       	ldi	r24, 0x00	; 0
    20a6:	90 e0       	ldi	r25, 0x00	; 0
    20a8:	df 91       	pop	r29
    20aa:	cf 91       	pop	r28
    20ac:	1f 91       	pop	r17
    20ae:	0f 91       	pop	r16
    20b0:	08 95       	ret

000020b2 <_Z11serialEventv>:
    20b2:	08 95       	ret

000020b4 <__vector_18>:
    20b4:	1f 92       	push	r1
    20b6:	0f 92       	push	r0
    20b8:	0f b6       	in	r0, 0x3f	; 63
    20ba:	0f 92       	push	r0
    20bc:	11 24       	eor	r1, r1
    20be:	2f 93       	push	r18
    20c0:	3f 93       	push	r19
    20c2:	4f 93       	push	r20
    20c4:	5f 93       	push	r21
    20c6:	6f 93       	push	r22
    20c8:	7f 93       	push	r23
    20ca:	8f 93       	push	r24
    20cc:	9f 93       	push	r25
    20ce:	af 93       	push	r26
    20d0:	bf 93       	push	r27
    20d2:	cf 93       	push	r28
    20d4:	ef 93       	push	r30
    20d6:	ff 93       	push	r31
    20d8:	c0 91 c6 00 	lds	r28, 0x00C6	; 0x8000c6 <__TEXT_REGION_LENGTH__+0x7e00c6>
    20dc:	80 91 a1 04 	lds	r24, 0x04A1	; 0x8004a1 <Serial+0x20>
    20e0:	88 23       	and	r24, r24
    20e2:	99 f0       	breq	.+38     	; 0x210a <__vector_18+0x56>
    20e4:	cd 30       	cpi	r28, 0x0D	; 13
    20e6:	59 f4       	brne	.+22     	; 0x20fe <__vector_18+0x4a>
    20e8:	6d e0       	ldi	r22, 0x0D	; 13
    20ea:	81 e8       	ldi	r24, 0x81	; 129
    20ec:	94 e0       	ldi	r25, 0x04	; 4
    20ee:	0e 94 0f 10 	call	0x201e	; 0x201e <_ZN14HardwareSerial5writeEh>
    20f2:	6a e0       	ldi	r22, 0x0A	; 10
    20f4:	81 e8       	ldi	r24, 0x81	; 129
    20f6:	94 e0       	ldi	r25, 0x04	; 4
    20f8:	0e 94 0f 10 	call	0x201e	; 0x201e <_ZN14HardwareSerial5writeEh>
    20fc:	08 c0       	rjmp	.+16     	; 0x210e <__vector_18+0x5a>
    20fe:	6c 2f       	mov	r22, r28
    2100:	81 e8       	ldi	r24, 0x81	; 129
    2102:	94 e0       	ldi	r25, 0x04	; 4
    2104:	0e 94 0f 10 	call	0x201e	; 0x201e <_ZN14HardwareSerial5writeEh>
    2108:	06 c0       	rjmp	.+12     	; 0x2116 <__vector_18+0x62>
    210a:	cd 30       	cpi	r28, 0x0D	; 13
    210c:	21 f4       	brne	.+8      	; 0x2116 <__vector_18+0x62>
    210e:	81 e0       	ldi	r24, 0x01	; 1
    2110:	80 93 a0 04 	sts	0x04A0, r24	; 0x8004a0 <Serial+0x1f>
    2114:	0d c0       	rjmp	.+26     	; 0x2130 <__vector_18+0x7c>
    2116:	c0 32       	cpi	r28, 0x20	; 32
    2118:	29 f4       	brne	.+10     	; 0x2124 <__vector_18+0x70>
    211a:	80 91 a2 04 	lds	r24, 0x04A2	; 0x8004a2 <Serial+0x21>
    211e:	88 23       	and	r24, r24
    2120:	39 f0       	breq	.+14     	; 0x2130 <__vector_18+0x7c>
    2122:	4c c0       	rjmp	.+152    	; 0x21bc <__vector_18+0x108>
    2124:	cf 37       	cpi	r28, 0x7F	; 127
    2126:	21 f4       	brne	.+8      	; 0x2130 <__vector_18+0x7c>
    2128:	80 91 38 04 	lds	r24, 0x0438	; 0x800438 <backspace_det>
    212c:	81 11       	cpse	r24, r1
    212e:	24 c0       	rjmp	.+72     	; 0x2178 <__vector_18+0xc4>
    2130:	80 91 2a 05 	lds	r24, 0x052A	; 0x80052a <rx_buffer+0x40>
    2134:	90 91 2b 05 	lds	r25, 0x052B	; 0x80052b <rx_buffer+0x41>
    2138:	20 91 2c 05 	lds	r18, 0x052C	; 0x80052c <rx_buffer+0x42>
    213c:	30 91 2d 05 	lds	r19, 0x052D	; 0x80052d <rx_buffer+0x43>
    2140:	01 96       	adiw	r24, 0x01	; 1
    2142:	8f 73       	andi	r24, 0x3F	; 63
    2144:	99 27       	eor	r25, r25
    2146:	28 17       	cp	r18, r24
    2148:	39 07       	cpc	r19, r25
    214a:	61 f0       	breq	.+24     	; 0x2164 <__vector_18+0xb0>
    214c:	e0 91 2a 05 	lds	r30, 0x052A	; 0x80052a <rx_buffer+0x40>
    2150:	f0 91 2b 05 	lds	r31, 0x052B	; 0x80052b <rx_buffer+0x41>
    2154:	e6 51       	subi	r30, 0x16	; 22
    2156:	fb 4f       	sbci	r31, 0xFB	; 251
    2158:	c0 83       	st	Z, r28
    215a:	90 93 2b 05 	sts	0x052B, r25	; 0x80052b <rx_buffer+0x41>
    215e:	80 93 2a 05 	sts	0x052A, r24	; 0x80052a <rx_buffer+0x40>
    2162:	2c c0       	rjmp	.+88     	; 0x21bc <__vector_18+0x108>
    2164:	80 91 a4 04 	lds	r24, 0x04A4	; 0x8004a4 <overflow_count>
    2168:	90 91 a5 04 	lds	r25, 0x04A5	; 0x8004a5 <overflow_count+0x1>
    216c:	01 96       	adiw	r24, 0x01	; 1
    216e:	90 93 a5 04 	sts	0x04A5, r25	; 0x8004a5 <overflow_count+0x1>
    2172:	80 93 a4 04 	sts	0x04A4, r24	; 0x8004a4 <overflow_count>
    2176:	22 c0       	rjmp	.+68     	; 0x21bc <__vector_18+0x108>
    2178:	80 91 a4 04 	lds	r24, 0x04A4	; 0x8004a4 <overflow_count>
    217c:	90 91 a5 04 	lds	r25, 0x04A5	; 0x8004a5 <overflow_count+0x1>
    2180:	00 97       	sbiw	r24, 0x00	; 0
    2182:	11 f0       	breq	.+4      	; 0x2188 <__vector_18+0xd4>
    2184:	01 97       	sbiw	r24, 0x01	; 1
    2186:	f3 cf       	rjmp	.-26     	; 0x216e <__vector_18+0xba>
    2188:	20 91 2a 05 	lds	r18, 0x052A	; 0x80052a <rx_buffer+0x40>
    218c:	30 91 2b 05 	lds	r19, 0x052B	; 0x80052b <rx_buffer+0x41>
    2190:	80 91 2c 05 	lds	r24, 0x052C	; 0x80052c <rx_buffer+0x42>
    2194:	90 91 2d 05 	lds	r25, 0x052D	; 0x80052d <rx_buffer+0x43>
    2198:	28 17       	cp	r18, r24
    219a:	39 07       	cpc	r19, r25
    219c:	79 f0       	breq	.+30     	; 0x21bc <__vector_18+0x108>
    219e:	80 91 2a 05 	lds	r24, 0x052A	; 0x80052a <rx_buffer+0x40>
    21a2:	90 91 2b 05 	lds	r25, 0x052B	; 0x80052b <rx_buffer+0x41>
    21a6:	89 2b       	or	r24, r25
    21a8:	19 f4       	brne	.+6      	; 0x21b0 <__vector_18+0xfc>
    21aa:	8f e3       	ldi	r24, 0x3F	; 63
    21ac:	90 e0       	ldi	r25, 0x00	; 0
    21ae:	d5 cf       	rjmp	.-86     	; 0x215a <__vector_18+0xa6>
    21b0:	80 91 2a 05 	lds	r24, 0x052A	; 0x80052a <rx_buffer+0x40>
    21b4:	90 91 2b 05 	lds	r25, 0x052B	; 0x80052b <rx_buffer+0x41>
    21b8:	01 97       	sbiw	r24, 0x01	; 1
    21ba:	cf cf       	rjmp	.-98     	; 0x215a <__vector_18+0xa6>
    21bc:	ff 91       	pop	r31
    21be:	ef 91       	pop	r30
    21c0:	cf 91       	pop	r28
    21c2:	bf 91       	pop	r27
    21c4:	af 91       	pop	r26
    21c6:	9f 91       	pop	r25
    21c8:	8f 91       	pop	r24
    21ca:	7f 91       	pop	r23
    21cc:	6f 91       	pop	r22
    21ce:	5f 91       	pop	r21
    21d0:	4f 91       	pop	r20
    21d2:	3f 91       	pop	r19
    21d4:	2f 91       	pop	r18
    21d6:	0f 90       	pop	r0
    21d8:	0f be       	out	0x3f, r0	; 63
    21da:	0f 90       	pop	r0
    21dc:	1f 90       	pop	r1
    21de:	18 95       	reti

000021e0 <_Z14serialEventRunv>:
    21e0:	81 e8       	ldi	r24, 0x81	; 129
    21e2:	94 e0       	ldi	r25, 0x04	; 4
    21e4:	0e 94 b1 0f 	call	0x1f62	; 0x1f62 <_ZN14HardwareSerial9availableEv>
    21e8:	89 2b       	or	r24, r25
    21ea:	11 f0       	breq	.+4      	; 0x21f0 <_Z14serialEventRunv+0x10>
    21ec:	0c 94 59 10 	jmp	0x20b2	; 0x20b2 <_Z11serialEventv>
    21f0:	08 95       	ret

000021f2 <__vector_19>:
    21f2:	1f 92       	push	r1
    21f4:	0f 92       	push	r0
    21f6:	0f b6       	in	r0, 0x3f	; 63
    21f8:	0f 92       	push	r0
    21fa:	11 24       	eor	r1, r1
    21fc:	2f 93       	push	r18
    21fe:	3f 93       	push	r19
    2200:	8f 93       	push	r24
    2202:	9f 93       	push	r25
    2204:	ef 93       	push	r30
    2206:	ff 93       	push	r31
    2208:	20 91 e6 04 	lds	r18, 0x04E6	; 0x8004e6 <tx_buffer+0x40>
    220c:	30 91 e7 04 	lds	r19, 0x04E7	; 0x8004e7 <tx_buffer+0x41>
    2210:	80 91 e8 04 	lds	r24, 0x04E8	; 0x8004e8 <tx_buffer+0x42>
    2214:	90 91 e9 04 	lds	r25, 0x04E9	; 0x8004e9 <tx_buffer+0x43>
    2218:	28 17       	cp	r18, r24
    221a:	39 07       	cpc	r19, r25
    221c:	31 f4       	brne	.+12     	; 0x222a <__vector_19+0x38>
    221e:	80 91 c1 00 	lds	r24, 0x00C1	; 0x8000c1 <__TEXT_REGION_LENGTH__+0x7e00c1>
    2222:	8f 7d       	andi	r24, 0xDF	; 223
    2224:	80 93 c1 00 	sts	0x00C1, r24	; 0x8000c1 <__TEXT_REGION_LENGTH__+0x7e00c1>
    2228:	14 c0       	rjmp	.+40     	; 0x2252 <__vector_19+0x60>
    222a:	e0 91 e8 04 	lds	r30, 0x04E8	; 0x8004e8 <tx_buffer+0x42>
    222e:	f0 91 e9 04 	lds	r31, 0x04E9	; 0x8004e9 <tx_buffer+0x43>
    2232:	ea 55       	subi	r30, 0x5A	; 90
    2234:	fb 4f       	sbci	r31, 0xFB	; 251
    2236:	20 81       	ld	r18, Z
    2238:	80 91 e8 04 	lds	r24, 0x04E8	; 0x8004e8 <tx_buffer+0x42>
    223c:	90 91 e9 04 	lds	r25, 0x04E9	; 0x8004e9 <tx_buffer+0x43>
    2240:	01 96       	adiw	r24, 0x01	; 1
    2242:	8f 73       	andi	r24, 0x3F	; 63
    2244:	99 27       	eor	r25, r25
    2246:	90 93 e9 04 	sts	0x04E9, r25	; 0x8004e9 <tx_buffer+0x43>
    224a:	80 93 e8 04 	sts	0x04E8, r24	; 0x8004e8 <tx_buffer+0x42>
    224e:	20 93 c6 00 	sts	0x00C6, r18	; 0x8000c6 <__TEXT_REGION_LENGTH__+0x7e00c6>
    2252:	ff 91       	pop	r31
    2254:	ef 91       	pop	r30
    2256:	9f 91       	pop	r25
    2258:	8f 91       	pop	r24
    225a:	3f 91       	pop	r19
    225c:	2f 91       	pop	r18
    225e:	0f 90       	pop	r0
    2260:	0f be       	out	0x3f, r0	; 63
    2262:	0f 90       	pop	r0
    2264:	1f 90       	pop	r1
    2266:	18 95       	reti

00002268 <_ZN14HardwareSerial16snoopModeDisableEv>:
    2268:	fc 01       	movw	r30, r24
    226a:	12 a2       	std	Z+34, r1	; 0x22
    226c:	a6 89       	ldd	r26, Z+22	; 0x16
    226e:	b7 89       	ldd	r27, Z+23	; 0x17
    2270:	4c 91       	ld	r20, X
    2272:	21 e0       	ldi	r18, 0x01	; 1
    2274:	30 e0       	ldi	r19, 0x00	; 0
    2276:	c9 01       	movw	r24, r18
    2278:	03 8c       	ldd	r0, Z+27	; 0x1b
    227a:	02 c0       	rjmp	.+4      	; 0x2280 <_ZN14HardwareSerial16snoopModeDisableEv+0x18>
    227c:	88 0f       	add	r24, r24
    227e:	99 1f       	adc	r25, r25
    2280:	0a 94       	dec	r0
    2282:	e2 f7       	brpl	.-8      	; 0x227c <_ZN14HardwareSerial16snoopModeDisableEv+0x14>
    2284:	84 2b       	or	r24, r20
    2286:	8c 93       	st	X, r24
    2288:	08 95       	ret

0000228a <_ZN14HardwareSerial5beginEm>:
    228a:	cf 92       	push	r12
    228c:	df 92       	push	r13
    228e:	ef 92       	push	r14
    2290:	ff 92       	push	r15
    2292:	cf 93       	push	r28
    2294:	df 93       	push	r29
    2296:	ec 01       	movw	r28, r24
    2298:	6a 01       	movw	r12, r20
    229a:	7b 01       	movw	r14, r22
    229c:	19 a2       	std	Y+33, r1	; 0x21
    229e:	18 a2       	std	Y+32, r1	; 0x20
    22a0:	0e 94 34 11 	call	0x2268	; 0x2268 <_ZN14HardwareSerial16snoopModeDisableEv>
    22a4:	c1 14       	cp	r12, r1
    22a6:	81 ee       	ldi	r24, 0xE1	; 225
    22a8:	d8 06       	cpc	r13, r24
    22aa:	e1 04       	cpc	r14, r1
    22ac:	f1 04       	cpc	r15, r1
    22ae:	09 f1       	breq	.+66     	; 0x22f2 <_ZN14HardwareSerial5beginEm+0x68>
    22b0:	ec 89       	ldd	r30, Y+20	; 0x14
    22b2:	fd 89       	ldd	r31, Y+21	; 0x15
    22b4:	81 e0       	ldi	r24, 0x01	; 1
    22b6:	90 e0       	ldi	r25, 0x00	; 0
    22b8:	0e 8c       	ldd	r0, Y+30	; 0x1e
    22ba:	02 c0       	rjmp	.+4      	; 0x22c0 <_ZN14HardwareSerial5beginEm+0x36>
    22bc:	88 0f       	add	r24, r24
    22be:	99 1f       	adc	r25, r25
    22c0:	0a 94       	dec	r0
    22c2:	e2 f7       	brpl	.-8      	; 0x22bc <_ZN14HardwareSerial5beginEm+0x32>
    22c4:	80 83       	st	Z, r24
    22c6:	60 e0       	ldi	r22, 0x00	; 0
    22c8:	79 e0       	ldi	r23, 0x09	; 9
    22ca:	8d e3       	ldi	r24, 0x3D	; 61
    22cc:	90 e0       	ldi	r25, 0x00	; 0
    22ce:	a7 01       	movw	r20, r14
    22d0:	96 01       	movw	r18, r12
    22d2:	0e 94 93 19 	call	0x3326	; 0x3326 <__udivmodsi4>
    22d6:	da 01       	movw	r26, r20
    22d8:	c9 01       	movw	r24, r18
    22da:	01 97       	sbiw	r24, 0x01	; 1
    22dc:	a1 09       	sbc	r26, r1
    22de:	b1 09       	sbc	r27, r1
    22e0:	b6 95       	lsr	r27
    22e2:	a7 95       	ror	r26
    22e4:	97 95       	ror	r25
    22e6:	87 95       	ror	r24
    22e8:	9c 01       	movw	r18, r24
    22ea:	21 15       	cp	r18, r1
    22ec:	80 e1       	ldi	r24, 0x10	; 16
    22ee:	38 07       	cpc	r19, r24
    22f0:	a8 f0       	brcs	.+42     	; 0x231c <_ZN14HardwareSerial5beginEm+0x92>
    22f2:	ec 89       	ldd	r30, Y+20	; 0x14
    22f4:	fd 89       	ldd	r31, Y+21	; 0x15
    22f6:	10 82       	st	Z, r1
    22f8:	60 e8       	ldi	r22, 0x80	; 128
    22fa:	74 e8       	ldi	r23, 0x84	; 132
    22fc:	8e e1       	ldi	r24, 0x1E	; 30
    22fe:	90 e0       	ldi	r25, 0x00	; 0
    2300:	a7 01       	movw	r20, r14
    2302:	96 01       	movw	r18, r12
    2304:	0e 94 93 19 	call	0x3326	; 0x3326 <__udivmodsi4>
    2308:	da 01       	movw	r26, r20
    230a:	c9 01       	movw	r24, r18
    230c:	01 97       	sbiw	r24, 0x01	; 1
    230e:	a1 09       	sbc	r26, r1
    2310:	b1 09       	sbc	r27, r1
    2312:	b6 95       	lsr	r27
    2314:	a7 95       	ror	r26
    2316:	97 95       	ror	r25
    2318:	87 95       	ror	r24
    231a:	9c 01       	movw	r18, r24
    231c:	e8 89       	ldd	r30, Y+16	; 0x10
    231e:	f9 89       	ldd	r31, Y+17	; 0x11
    2320:	30 83       	st	Z, r19
    2322:	ea 89       	ldd	r30, Y+18	; 0x12
    2324:	fb 89       	ldd	r31, Y+19	; 0x13
    2326:	20 83       	st	Z, r18
    2328:	ee 89       	ldd	r30, Y+22	; 0x16
    232a:	ff 89       	ldd	r31, Y+23	; 0x17
    232c:	40 81       	ld	r20, Z
    232e:	81 e0       	ldi	r24, 0x01	; 1
    2330:	90 e0       	ldi	r25, 0x00	; 0
    2332:	9c 01       	movw	r18, r24
    2334:	0a 8c       	ldd	r0, Y+26	; 0x1a
    2336:	02 c0       	rjmp	.+4      	; 0x233c <_ZN14HardwareSerial5beginEm+0xb2>
    2338:	22 0f       	add	r18, r18
    233a:	33 1f       	adc	r19, r19
    233c:	0a 94       	dec	r0
    233e:	e2 f7       	brpl	.-8      	; 0x2338 <_ZN14HardwareSerial5beginEm+0xae>
    2340:	24 2b       	or	r18, r20
    2342:	20 83       	st	Z, r18
    2344:	ee 89       	ldd	r30, Y+22	; 0x16
    2346:	ff 89       	ldd	r31, Y+23	; 0x17
    2348:	40 81       	ld	r20, Z
    234a:	9c 01       	movw	r18, r24
    234c:	0b 8c       	ldd	r0, Y+27	; 0x1b
    234e:	02 c0       	rjmp	.+4      	; 0x2354 <_ZN14HardwareSerial5beginEm+0xca>
    2350:	22 0f       	add	r18, r18
    2352:	33 1f       	adc	r19, r19
    2354:	0a 94       	dec	r0
    2356:	e2 f7       	brpl	.-8      	; 0x2350 <_ZN14HardwareSerial5beginEm+0xc6>
    2358:	24 2b       	or	r18, r20
    235a:	20 83       	st	Z, r18
    235c:	ee 89       	ldd	r30, Y+22	; 0x16
    235e:	ff 89       	ldd	r31, Y+23	; 0x17
    2360:	40 81       	ld	r20, Z
    2362:	9c 01       	movw	r18, r24
    2364:	0c 8c       	ldd	r0, Y+28	; 0x1c
    2366:	02 c0       	rjmp	.+4      	; 0x236c <_ZN14HardwareSerial5beginEm+0xe2>
    2368:	22 0f       	add	r18, r18
    236a:	33 1f       	adc	r19, r19
    236c:	0a 94       	dec	r0
    236e:	e2 f7       	brpl	.-8      	; 0x2368 <_ZN14HardwareSerial5beginEm+0xde>
    2370:	24 2b       	or	r18, r20
    2372:	20 83       	st	Z, r18
    2374:	ee 89       	ldd	r30, Y+22	; 0x16
    2376:	ff 89       	ldd	r31, Y+23	; 0x17
    2378:	20 81       	ld	r18, Z
    237a:	0d 8c       	ldd	r0, Y+29	; 0x1d
    237c:	02 c0       	rjmp	.+4      	; 0x2382 <_ZN14HardwareSerial5beginEm+0xf8>
    237e:	88 0f       	add	r24, r24
    2380:	99 1f       	adc	r25, r25
    2382:	0a 94       	dec	r0
    2384:	e2 f7       	brpl	.-8      	; 0x237e <_ZN14HardwareSerial5beginEm+0xf4>
    2386:	80 95       	com	r24
    2388:	82 23       	and	r24, r18
    238a:	80 83       	st	Z, r24
    238c:	1f 8e       	std	Y+31, r1	; 0x1f
    238e:	df 91       	pop	r29
    2390:	cf 91       	pop	r28
    2392:	ff 90       	pop	r15
    2394:	ef 90       	pop	r14
    2396:	df 90       	pop	r13
    2398:	cf 90       	pop	r12
    239a:	08 95       	ret

0000239c <_GLOBAL__sub_I_rx_buffer>:
    239c:	e1 e8       	ldi	r30, 0x81	; 129
    239e:	f4 e0       	ldi	r31, 0x04	; 4
    23a0:	13 82       	std	Z+3, r1	; 0x03
    23a2:	12 82       	std	Z+2, r1	; 0x02
    23a4:	88 ee       	ldi	r24, 0xE8	; 232
    23a6:	93 e0       	ldi	r25, 0x03	; 3
    23a8:	a0 e0       	ldi	r26, 0x00	; 0
    23aa:	b0 e0       	ldi	r27, 0x00	; 0
    23ac:	84 83       	std	Z+4, r24	; 0x04
    23ae:	95 83       	std	Z+5, r25	; 0x05
    23b0:	a6 83       	std	Z+6, r26	; 0x06
    23b2:	b7 83       	std	Z+7, r27	; 0x07
    23b4:	86 e2       	ldi	r24, 0x26	; 38
    23b6:	94 e0       	ldi	r25, 0x04	; 4
    23b8:	91 83       	std	Z+1, r25	; 0x01
    23ba:	80 83       	st	Z, r24
    23bc:	8a ee       	ldi	r24, 0xEA	; 234
    23be:	94 e0       	ldi	r25, 0x04	; 4
    23c0:	95 87       	std	Z+13, r25	; 0x0d
    23c2:	84 87       	std	Z+12, r24	; 0x0c
    23c4:	86 ea       	ldi	r24, 0xA6	; 166
    23c6:	94 e0       	ldi	r25, 0x04	; 4
    23c8:	97 87       	std	Z+15, r25	; 0x0f
    23ca:	86 87       	std	Z+14, r24	; 0x0e
    23cc:	85 ec       	ldi	r24, 0xC5	; 197
    23ce:	90 e0       	ldi	r25, 0x00	; 0
    23d0:	91 8b       	std	Z+17, r25	; 0x11
    23d2:	80 8b       	std	Z+16, r24	; 0x10
    23d4:	84 ec       	ldi	r24, 0xC4	; 196
    23d6:	90 e0       	ldi	r25, 0x00	; 0
    23d8:	93 8b       	std	Z+19, r25	; 0x13
    23da:	82 8b       	std	Z+18, r24	; 0x12
    23dc:	80 ec       	ldi	r24, 0xC0	; 192
    23de:	90 e0       	ldi	r25, 0x00	; 0
    23e0:	95 8b       	std	Z+21, r25	; 0x15
    23e2:	84 8b       	std	Z+20, r24	; 0x14
    23e4:	81 ec       	ldi	r24, 0xC1	; 193
    23e6:	90 e0       	ldi	r25, 0x00	; 0
    23e8:	97 8b       	std	Z+23, r25	; 0x17
    23ea:	86 8b       	std	Z+22, r24	; 0x16
    23ec:	86 ec       	ldi	r24, 0xC6	; 198
    23ee:	90 e0       	ldi	r25, 0x00	; 0
    23f0:	91 8f       	std	Z+25, r25	; 0x19
    23f2:	80 8f       	std	Z+24, r24	; 0x18
    23f4:	84 e0       	ldi	r24, 0x04	; 4
    23f6:	82 8f       	std	Z+26, r24	; 0x1a
    23f8:	83 e0       	ldi	r24, 0x03	; 3
    23fa:	83 8f       	std	Z+27, r24	; 0x1b
    23fc:	87 e0       	ldi	r24, 0x07	; 7
    23fe:	84 8f       	std	Z+28, r24	; 0x1c
    2400:	85 e0       	ldi	r24, 0x05	; 5
    2402:	85 8f       	std	Z+29, r24	; 0x1d
    2404:	81 e0       	ldi	r24, 0x01	; 1
    2406:	86 8f       	std	Z+30, r24	; 0x1e
    2408:	08 95       	ret

0000240a <_Z8i2c_initm>:
    240a:	9b 01       	movw	r18, r22
    240c:	ac 01       	movw	r20, r24
    240e:	60 e0       	ldi	r22, 0x00	; 0
    2410:	74 e2       	ldi	r23, 0x24	; 36
    2412:	84 ef       	ldi	r24, 0xF4	; 244
    2414:	90 e0       	ldi	r25, 0x00	; 0
    2416:	0e 94 93 19 	call	0x3326	; 0x3326 <__udivmodsi4>
    241a:	da 01       	movw	r26, r20
    241c:	c9 01       	movw	r24, r18
    241e:	40 97       	sbiw	r24, 0x10	; 16
    2420:	a1 09       	sbc	r26, r1
    2422:	b1 09       	sbc	r27, r1
    2424:	b6 95       	lsr	r27
    2426:	a7 95       	ror	r26
    2428:	97 95       	ror	r25
    242a:	87 95       	ror	r24
    242c:	8f 3f       	cpi	r24, 0xFF	; 255
    242e:	91 05       	cpc	r25, r1
    2430:	09 f0       	breq	.+2      	; 0x2434 <_Z8i2c_initm+0x2a>
    2432:	40 f4       	brcc	.+16     	; 0x2444 <_Z8i2c_initm+0x3a>
    2434:	10 92 b9 00 	sts	0x00B9, r1	; 0x8000b9 <__TEXT_REGION_LENGTH__+0x7e00b9>
    2438:	80 93 b8 00 	sts	0x00B8, r24	; 0x8000b8 <__TEXT_REGION_LENGTH__+0x7e00b8>
    243c:	24 e0       	ldi	r18, 0x04	; 4
    243e:	20 93 bc 00 	sts	0x00BC, r18	; 0x8000bc <__TEXT_REGION_LENGTH__+0x7e00bc>
    2442:	08 95       	ret
    2444:	80 e0       	ldi	r24, 0x00	; 0
    2446:	90 e0       	ldi	r25, 0x00	; 0
    2448:	08 95       	ret

0000244a <_Z9i2c_startv>:
    244a:	0f 93       	push	r16
    244c:	1f 93       	push	r17
    244e:	84 ea       	ldi	r24, 0xA4	; 164
    2450:	80 93 bc 00 	sts	0x00BC, r24	; 0x8000bc <__TEXT_REGION_LENGTH__+0x7e00bc>
    2454:	0e 94 34 16 	call	0x2c68	; 0x2c68 <millis>
    2458:	60 93 2e 05 	sts	0x052E, r22	; 0x80052e <time_stamp>
    245c:	70 93 2f 05 	sts	0x052F, r23	; 0x80052f <time_stamp+0x1>
    2460:	80 93 30 05 	sts	0x0530, r24	; 0x800530 <time_stamp+0x2>
    2464:	90 93 31 05 	sts	0x0531, r25	; 0x800531 <time_stamp+0x3>
    2468:	80 91 bc 00 	lds	r24, 0x00BC	; 0x8000bc <__TEXT_REGION_LENGTH__+0x7e00bc>
    246c:	87 fd       	sbrc	r24, 7
    246e:	1e c0       	rjmp	.+60     	; 0x24ac <_Z9i2c_startv+0x62>
    2470:	0e 94 34 16 	call	0x2c68	; 0x2c68 <millis>
    2474:	00 91 2e 05 	lds	r16, 0x052E	; 0x80052e <time_stamp>
    2478:	10 91 2f 05 	lds	r17, 0x052F	; 0x80052f <time_stamp+0x1>
    247c:	20 91 30 05 	lds	r18, 0x0530	; 0x800530 <time_stamp+0x2>
    2480:	30 91 31 05 	lds	r19, 0x0531	; 0x800531 <time_stamp+0x3>
    2484:	ab 01       	movw	r20, r22
    2486:	bc 01       	movw	r22, r24
    2488:	40 1b       	sub	r20, r16
    248a:	51 0b       	sbc	r21, r17
    248c:	62 0b       	sbc	r22, r18
    248e:	73 0b       	sbc	r23, r19
    2490:	80 91 fe 02 	lds	r24, 0x02FE	; 0x8002fe <timeout_val>
    2494:	90 91 ff 02 	lds	r25, 0x02FF	; 0x8002ff <timeout_val+0x1>
    2498:	a0 e0       	ldi	r26, 0x00	; 0
    249a:	b0 e0       	ldi	r27, 0x00	; 0
    249c:	84 17       	cp	r24, r20
    249e:	95 07       	cpc	r25, r21
    24a0:	a6 07       	cpc	r26, r22
    24a2:	b7 07       	cpc	r27, r23
    24a4:	08 f7       	brcc	.-62     	; 0x2468 <_Z9i2c_startv+0x1e>
    24a6:	82 e0       	ldi	r24, 0x02	; 2
    24a8:	90 e0       	ldi	r25, 0x00	; 0
    24aa:	08 c0       	rjmp	.+16     	; 0x24bc <_Z9i2c_startv+0x72>
    24ac:	20 91 b9 00 	lds	r18, 0x00B9	; 0x8000b9 <__TEXT_REGION_LENGTH__+0x7e00b9>
    24b0:	28 7f       	andi	r18, 0xF8	; 248
    24b2:	81 e0       	ldi	r24, 0x01	; 1
    24b4:	90 e0       	ldi	r25, 0x00	; 0
    24b6:	28 30       	cpi	r18, 0x08	; 8
    24b8:	09 f0       	breq	.+2      	; 0x24bc <_Z9i2c_startv+0x72>
    24ba:	80 e0       	ldi	r24, 0x00	; 0
    24bc:	1f 91       	pop	r17
    24be:	0f 91       	pop	r16
    24c0:	08 95       	ret

000024c2 <_Z13i2c_rep_startv>:
    24c2:	0f 93       	push	r16
    24c4:	1f 93       	push	r17
    24c6:	84 ea       	ldi	r24, 0xA4	; 164
    24c8:	80 93 bc 00 	sts	0x00BC, r24	; 0x8000bc <__TEXT_REGION_LENGTH__+0x7e00bc>
    24cc:	0e 94 34 16 	call	0x2c68	; 0x2c68 <millis>
    24d0:	60 93 2e 05 	sts	0x052E, r22	; 0x80052e <time_stamp>
    24d4:	70 93 2f 05 	sts	0x052F, r23	; 0x80052f <time_stamp+0x1>
    24d8:	80 93 30 05 	sts	0x0530, r24	; 0x800530 <time_stamp+0x2>
    24dc:	90 93 31 05 	sts	0x0531, r25	; 0x800531 <time_stamp+0x3>
    24e0:	80 91 bc 00 	lds	r24, 0x00BC	; 0x8000bc <__TEXT_REGION_LENGTH__+0x7e00bc>
    24e4:	87 fd       	sbrc	r24, 7
    24e6:	1e c0       	rjmp	.+60     	; 0x2524 <_Z13i2c_rep_startv+0x62>
    24e8:	0e 94 34 16 	call	0x2c68	; 0x2c68 <millis>
    24ec:	00 91 2e 05 	lds	r16, 0x052E	; 0x80052e <time_stamp>
    24f0:	10 91 2f 05 	lds	r17, 0x052F	; 0x80052f <time_stamp+0x1>
    24f4:	20 91 30 05 	lds	r18, 0x0530	; 0x800530 <time_stamp+0x2>
    24f8:	30 91 31 05 	lds	r19, 0x0531	; 0x800531 <time_stamp+0x3>
    24fc:	ab 01       	movw	r20, r22
    24fe:	bc 01       	movw	r22, r24
    2500:	40 1b       	sub	r20, r16
    2502:	51 0b       	sbc	r21, r17
    2504:	62 0b       	sbc	r22, r18
    2506:	73 0b       	sbc	r23, r19
    2508:	80 91 fe 02 	lds	r24, 0x02FE	; 0x8002fe <timeout_val>
    250c:	90 91 ff 02 	lds	r25, 0x02FF	; 0x8002ff <timeout_val+0x1>
    2510:	a0 e0       	ldi	r26, 0x00	; 0
    2512:	b0 e0       	ldi	r27, 0x00	; 0
    2514:	84 17       	cp	r24, r20
    2516:	95 07       	cpc	r25, r21
    2518:	a6 07       	cpc	r26, r22
    251a:	b7 07       	cpc	r27, r23
    251c:	08 f7       	brcc	.-62     	; 0x24e0 <_Z13i2c_rep_startv+0x1e>
    251e:	82 e0       	ldi	r24, 0x02	; 2
    2520:	90 e0       	ldi	r25, 0x00	; 0
    2522:	08 c0       	rjmp	.+16     	; 0x2534 <_Z13i2c_rep_startv+0x72>
    2524:	20 91 b9 00 	lds	r18, 0x00B9	; 0x8000b9 <__TEXT_REGION_LENGTH__+0x7e00b9>
    2528:	28 7f       	andi	r18, 0xF8	; 248
    252a:	81 e0       	ldi	r24, 0x01	; 1
    252c:	90 e0       	ldi	r25, 0x00	; 0
    252e:	20 31       	cpi	r18, 0x10	; 16
    2530:	09 f0       	breq	.+2      	; 0x2534 <_Z13i2c_rep_startv+0x72>
    2532:	80 e0       	ldi	r24, 0x00	; 0
    2534:	1f 91       	pop	r17
    2536:	0f 91       	pop	r16
    2538:	08 95       	ret

0000253a <_Z12i2c_transmith>:
    253a:	0f 93       	push	r16
    253c:	1f 93       	push	r17
    253e:	80 93 bb 00 	sts	0x00BB, r24	; 0x8000bb <__TEXT_REGION_LENGTH__+0x7e00bb>
    2542:	90 91 bc 00 	lds	r25, 0x00BC	; 0x8000bc <__TEXT_REGION_LENGTH__+0x7e00bc>
    2546:	93 fd       	sbrc	r25, 3
    2548:	fa cf       	rjmp	.-12     	; 0x253e <_Z12i2c_transmith+0x4>
    254a:	84 e8       	ldi	r24, 0x84	; 132
    254c:	80 93 bc 00 	sts	0x00BC, r24	; 0x8000bc <__TEXT_REGION_LENGTH__+0x7e00bc>
    2550:	0e 94 34 16 	call	0x2c68	; 0x2c68 <millis>
    2554:	60 93 2e 05 	sts	0x052E, r22	; 0x80052e <time_stamp>
    2558:	70 93 2f 05 	sts	0x052F, r23	; 0x80052f <time_stamp+0x1>
    255c:	80 93 30 05 	sts	0x0530, r24	; 0x800530 <time_stamp+0x2>
    2560:	90 93 31 05 	sts	0x0531, r25	; 0x800531 <time_stamp+0x3>
    2564:	80 91 bc 00 	lds	r24, 0x00BC	; 0x8000bc <__TEXT_REGION_LENGTH__+0x7e00bc>
    2568:	87 fd       	sbrc	r24, 7
    256a:	1d c0       	rjmp	.+58     	; 0x25a6 <_Z12i2c_transmith+0x6c>
    256c:	0e 94 34 16 	call	0x2c68	; 0x2c68 <millis>
    2570:	00 91 2e 05 	lds	r16, 0x052E	; 0x80052e <time_stamp>
    2574:	10 91 2f 05 	lds	r17, 0x052F	; 0x80052f <time_stamp+0x1>
    2578:	20 91 30 05 	lds	r18, 0x0530	; 0x800530 <time_stamp+0x2>
    257c:	30 91 31 05 	lds	r19, 0x0531	; 0x800531 <time_stamp+0x3>
    2580:	ab 01       	movw	r20, r22
    2582:	bc 01       	movw	r22, r24
    2584:	40 1b       	sub	r20, r16
    2586:	51 0b       	sbc	r21, r17
    2588:	62 0b       	sbc	r22, r18
    258a:	73 0b       	sbc	r23, r19
    258c:	80 91 fe 02 	lds	r24, 0x02FE	; 0x8002fe <timeout_val>
    2590:	90 91 ff 02 	lds	r25, 0x02FF	; 0x8002ff <timeout_val+0x1>
    2594:	a0 e0       	ldi	r26, 0x00	; 0
    2596:	b0 e0       	ldi	r27, 0x00	; 0
    2598:	84 17       	cp	r24, r20
    259a:	95 07       	cpc	r25, r21
    259c:	a6 07       	cpc	r26, r22
    259e:	b7 07       	cpc	r27, r23
    25a0:	08 f7       	brcc	.-62     	; 0x2564 <_Z12i2c_transmith+0x2a>
    25a2:	82 e0       	ldi	r24, 0x02	; 2
    25a4:	03 c0       	rjmp	.+6      	; 0x25ac <_Z12i2c_transmith+0x72>
    25a6:	80 91 b9 00 	lds	r24, 0x00B9	; 0x8000b9 <__TEXT_REGION_LENGTH__+0x7e00b9>
    25aa:	88 7f       	andi	r24, 0xF8	; 248
    25ac:	1f 91       	pop	r17
    25ae:	0f 91       	pop	r16
    25b0:	08 95       	ret

000025b2 <_Z11i2c_receivehPh>:
    25b2:	0f 93       	push	r16
    25b4:	1f 93       	push	r17
    25b6:	cf 93       	push	r28
    25b8:	df 93       	push	r29
    25ba:	eb 01       	movw	r28, r22
    25bc:	88 23       	and	r24, r24
    25be:	11 f0       	breq	.+4      	; 0x25c4 <_Z11i2c_receivehPh+0x12>
    25c0:	84 e8       	ldi	r24, 0x84	; 132
    25c2:	01 c0       	rjmp	.+2      	; 0x25c6 <_Z11i2c_receivehPh+0x14>
    25c4:	84 ec       	ldi	r24, 0xC4	; 196
    25c6:	80 93 bc 00 	sts	0x00BC, r24	; 0x8000bc <__TEXT_REGION_LENGTH__+0x7e00bc>
    25ca:	0e 94 34 16 	call	0x2c68	; 0x2c68 <millis>
    25ce:	60 93 2e 05 	sts	0x052E, r22	; 0x80052e <time_stamp>
    25d2:	70 93 2f 05 	sts	0x052F, r23	; 0x80052f <time_stamp+0x1>
    25d6:	80 93 30 05 	sts	0x0530, r24	; 0x800530 <time_stamp+0x2>
    25da:	90 93 31 05 	sts	0x0531, r25	; 0x800531 <time_stamp+0x3>
    25de:	80 91 bc 00 	lds	r24, 0x00BC	; 0x8000bc <__TEXT_REGION_LENGTH__+0x7e00bc>
    25e2:	87 fd       	sbrc	r24, 7
    25e4:	1d c0       	rjmp	.+58     	; 0x2620 <_Z11i2c_receivehPh+0x6e>
    25e6:	0e 94 34 16 	call	0x2c68	; 0x2c68 <millis>
    25ea:	00 91 2e 05 	lds	r16, 0x052E	; 0x80052e <time_stamp>
    25ee:	10 91 2f 05 	lds	r17, 0x052F	; 0x80052f <time_stamp+0x1>
    25f2:	20 91 30 05 	lds	r18, 0x0530	; 0x800530 <time_stamp+0x2>
    25f6:	30 91 31 05 	lds	r19, 0x0531	; 0x800531 <time_stamp+0x3>
    25fa:	ab 01       	movw	r20, r22
    25fc:	bc 01       	movw	r22, r24
    25fe:	40 1b       	sub	r20, r16
    2600:	51 0b       	sbc	r21, r17
    2602:	62 0b       	sbc	r22, r18
    2604:	73 0b       	sbc	r23, r19
    2606:	80 91 fe 02 	lds	r24, 0x02FE	; 0x8002fe <timeout_val>
    260a:	90 91 ff 02 	lds	r25, 0x02FF	; 0x8002ff <timeout_val+0x1>
    260e:	a0 e0       	ldi	r26, 0x00	; 0
    2610:	b0 e0       	ldi	r27, 0x00	; 0
    2612:	84 17       	cp	r24, r20
    2614:	95 07       	cpc	r25, r21
    2616:	a6 07       	cpc	r26, r22
    2618:	b7 07       	cpc	r27, r23
    261a:	08 f7       	brcc	.-62     	; 0x25de <_Z11i2c_receivehPh+0x2c>
    261c:	82 e0       	ldi	r24, 0x02	; 2
    261e:	04 c0       	rjmp	.+8      	; 0x2628 <_Z11i2c_receivehPh+0x76>
    2620:	80 91 bb 00 	lds	r24, 0x00BB	; 0x8000bb <__TEXT_REGION_LENGTH__+0x7e00bb>
    2624:	88 83       	st	Y, r24
    2626:	81 e0       	ldi	r24, 0x01	; 1
    2628:	df 91       	pop	r29
    262a:	cf 91       	pop	r28
    262c:	1f 91       	pop	r17
    262e:	0f 91       	pop	r16
    2630:	08 95       	ret

00002632 <_Z12i2c_tx_sla_rh>:
    2632:	88 0f       	add	r24, r24
    2634:	81 60       	ori	r24, 0x01	; 1
    2636:	0c 94 9d 12 	jmp	0x253a	; 0x253a <_Z12i2c_transmith>

0000263a <_Z12i2c_tx_sla_wh>:
    263a:	88 0f       	add	r24, r24
    263c:	0c 94 9d 12 	jmp	0x253a	; 0x253a <_Z12i2c_transmith>

00002640 <_Z9i2c_writehhPhh>:
    2640:	ff 92       	push	r15
    2642:	0f 93       	push	r16
    2644:	1f 93       	push	r17
    2646:	cf 93       	push	r28
    2648:	df 93       	push	r29
    264a:	d8 2f       	mov	r29, r24
    264c:	c6 2f       	mov	r28, r22
    264e:	f4 2e       	mov	r15, r20
    2650:	05 2f       	mov	r16, r21
    2652:	12 2f       	mov	r17, r18
    2654:	0e 94 25 12 	call	0x244a	; 0x244a <_Z9i2c_startv>
    2658:	8d 2f       	mov	r24, r29
    265a:	0e 94 1d 13 	call	0x263a	; 0x263a <_Z12i2c_tx_sla_wh>
    265e:	8c 2f       	mov	r24, r28
    2660:	0e 94 9d 12 	call	0x253a	; 0x253a <_Z12i2c_transmith>
    2664:	cf 2d       	mov	r28, r15
    2666:	d0 2f       	mov	r29, r16
    2668:	ce 01       	movw	r24, r28
    266a:	81 0f       	add	r24, r17
    266c:	91 1d       	adc	r25, r1
    266e:	8c 01       	movw	r16, r24
    2670:	c0 17       	cp	r28, r16
    2672:	d1 07       	cpc	r29, r17
    2674:	21 f0       	breq	.+8      	; 0x267e <_Z9i2c_writehhPhh+0x3e>
    2676:	89 91       	ld	r24, Y+
    2678:	0e 94 9d 12 	call	0x253a	; 0x253a <_Z12i2c_transmith>
    267c:	f9 cf       	rjmp	.-14     	; 0x2670 <_Z9i2c_writehhPhh+0x30>
    267e:	84 e9       	ldi	r24, 0x94	; 148
    2680:	80 93 bc 00 	sts	0x00BC, r24	; 0x8000bc <__TEXT_REGION_LENGTH__+0x7e00bc>
    2684:	81 e0       	ldi	r24, 0x01	; 1
    2686:	df 91       	pop	r29
    2688:	cf 91       	pop	r28
    268a:	1f 91       	pop	r17
    268c:	0f 91       	pop	r16
    268e:	ff 90       	pop	r15
    2690:	08 95       	ret

00002692 <_Z8i2c_readhhPhh>:
    2692:	cf 92       	push	r12
    2694:	df 92       	push	r13
    2696:	ef 92       	push	r14
    2698:	ff 92       	push	r15
    269a:	0f 93       	push	r16
    269c:	1f 93       	push	r17
    269e:	cf 93       	push	r28
    26a0:	df 93       	push	r29
    26a2:	c8 2f       	mov	r28, r24
    26a4:	d6 2f       	mov	r29, r22
    26a6:	8a 01       	movw	r16, r20
    26a8:	e2 2e       	mov	r14, r18
    26aa:	0e 94 25 12 	call	0x244a	; 0x244a <_Z9i2c_startv>
    26ae:	8c 2f       	mov	r24, r28
    26b0:	0e 94 1d 13 	call	0x263a	; 0x263a <_Z12i2c_tx_sla_wh>
    26b4:	8d 2f       	mov	r24, r29
    26b6:	0e 94 9d 12 	call	0x253a	; 0x253a <_Z12i2c_transmith>
    26ba:	0e 94 61 12 	call	0x24c2	; 0x24c2 <_Z13i2c_rep_startv>
    26be:	8c 2f       	mov	r24, r28
    26c0:	0e 94 19 13 	call	0x2632	; 0x2632 <_Z12i2c_tx_sla_rh>
    26c4:	e8 01       	movw	r28, r16
    26c6:	f1 2c       	mov	r15, r1
    26c8:	00 e0       	ldi	r16, 0x00	; 0
    26ca:	10 e0       	ldi	r17, 0x00	; 0
    26cc:	67 01       	movw	r12, r14
    26ce:	81 e0       	ldi	r24, 0x01	; 1
    26d0:	c8 1a       	sub	r12, r24
    26d2:	d1 08       	sbc	r13, r1
    26d4:	0e 15       	cp	r16, r14
    26d6:	1f 05       	cpc	r17, r15
    26d8:	69 f0       	breq	.+26     	; 0x26f4 <_Z8i2c_readhhPhh+0x62>
    26da:	be 01       	movw	r22, r28
    26dc:	c0 16       	cp	r12, r16
    26de:	d1 06       	cpc	r13, r17
    26e0:	11 f0       	breq	.+4      	; 0x26e6 <_Z8i2c_readhhPhh+0x54>
    26e2:	80 e0       	ldi	r24, 0x00	; 0
    26e4:	01 c0       	rjmp	.+2      	; 0x26e8 <_Z8i2c_readhhPhh+0x56>
    26e6:	81 e0       	ldi	r24, 0x01	; 1
    26e8:	0e 94 d9 12 	call	0x25b2	; 0x25b2 <_Z11i2c_receivehPh>
    26ec:	0f 5f       	subi	r16, 0xFF	; 255
    26ee:	1f 4f       	sbci	r17, 0xFF	; 255
    26f0:	21 96       	adiw	r28, 0x01	; 1
    26f2:	f0 cf       	rjmp	.-32     	; 0x26d4 <_Z8i2c_readhhPhh+0x42>
    26f4:	84 e9       	ldi	r24, 0x94	; 148
    26f6:	80 93 bc 00 	sts	0x00BC, r24	; 0x8000bc <__TEXT_REGION_LENGTH__+0x7e00bc>
    26fa:	81 e0       	ldi	r24, 0x01	; 1
    26fc:	df 91       	pop	r29
    26fe:	cf 91       	pop	r28
    2700:	1f 91       	pop	r17
    2702:	0f 91       	pop	r16
    2704:	ff 90       	pop	r15
    2706:	ef 90       	pop	r14
    2708:	df 90       	pop	r13
    270a:	cf 90       	pop	r12
    270c:	08 95       	ret

0000270e <_Znwj>:
    270e:	0c 94 dd 19 	jmp	0x33ba	; 0x33ba <malloc>

00002712 <__cxa_pure_virtual>:
    2712:	08 95       	ret

00002714 <_ZN5Print5writeEPKhj>:
    2714:	cf 92       	push	r12
    2716:	df 92       	push	r13
    2718:	ef 92       	push	r14
    271a:	ff 92       	push	r15
    271c:	0f 93       	push	r16
    271e:	1f 93       	push	r17
    2720:	cf 93       	push	r28
    2722:	df 93       	push	r29
    2724:	6c 01       	movw	r12, r24
    2726:	eb 01       	movw	r28, r22
    2728:	7b 01       	movw	r14, r22
    272a:	e4 0e       	add	r14, r20
    272c:	f5 1e       	adc	r15, r21
    272e:	00 e0       	ldi	r16, 0x00	; 0
    2730:	10 e0       	ldi	r17, 0x00	; 0
    2732:	ce 15       	cp	r28, r14
    2734:	df 05       	cpc	r29, r15
    2736:	61 f0       	breq	.+24     	; 0x2750 <_ZN5Print5writeEPKhj+0x3c>
    2738:	69 91       	ld	r22, Y+
    273a:	d6 01       	movw	r26, r12
    273c:	ed 91       	ld	r30, X+
    273e:	fc 91       	ld	r31, X
    2740:	01 90       	ld	r0, Z+
    2742:	f0 81       	ld	r31, Z
    2744:	e0 2d       	mov	r30, r0
    2746:	c6 01       	movw	r24, r12
    2748:	09 95       	icall
    274a:	08 0f       	add	r16, r24
    274c:	19 1f       	adc	r17, r25
    274e:	f1 cf       	rjmp	.-30     	; 0x2732 <_ZN5Print5writeEPKhj+0x1e>
    2750:	c8 01       	movw	r24, r16
    2752:	df 91       	pop	r29
    2754:	cf 91       	pop	r28
    2756:	1f 91       	pop	r17
    2758:	0f 91       	pop	r16
    275a:	ff 90       	pop	r15
    275c:	ef 90       	pop	r14
    275e:	df 90       	pop	r13
    2760:	cf 90       	pop	r12
    2762:	08 95       	ret

00002764 <_ZN5Print5writeEPKc>:
    2764:	fb 01       	movw	r30, r22
    2766:	01 90       	ld	r0, Z+
    2768:	00 20       	and	r0, r0
    276a:	e9 f7       	brne	.-6      	; 0x2766 <_ZN5Print5writeEPKc+0x2>
    276c:	31 97       	sbiw	r30, 0x01	; 1
    276e:	af 01       	movw	r20, r30
    2770:	46 1b       	sub	r20, r22
    2772:	57 0b       	sbc	r21, r23
    2774:	dc 01       	movw	r26, r24
    2776:	ed 91       	ld	r30, X+
    2778:	fc 91       	ld	r31, X
    277a:	02 80       	ldd	r0, Z+2	; 0x02
    277c:	f3 81       	ldd	r31, Z+3	; 0x03
    277e:	e0 2d       	mov	r30, r0
    2780:	09 94       	ijmp

00002782 <_ZN5Print5printEPK19__FlashStringHelper>:
    2782:	ef 92       	push	r14
    2784:	ff 92       	push	r15
    2786:	0f 93       	push	r16
    2788:	1f 93       	push	r17
    278a:	cf 93       	push	r28
    278c:	df 93       	push	r29
    278e:	7c 01       	movw	r14, r24
    2790:	fb 01       	movw	r30, r22
    2792:	00 e0       	ldi	r16, 0x00	; 0
    2794:	10 e0       	ldi	r17, 0x00	; 0
    2796:	64 91       	lpm	r22, Z
    2798:	ef 01       	movw	r28, r30
    279a:	21 96       	adiw	r28, 0x01	; 1
    279c:	66 23       	and	r22, r22
    279e:	61 f0       	breq	.+24     	; 0x27b8 <_ZN5Print5printEPK19__FlashStringHelper+0x36>
    27a0:	d7 01       	movw	r26, r14
    27a2:	ed 91       	ld	r30, X+
    27a4:	fc 91       	ld	r31, X
    27a6:	01 90       	ld	r0, Z+
    27a8:	f0 81       	ld	r31, Z
    27aa:	e0 2d       	mov	r30, r0
    27ac:	c7 01       	movw	r24, r14
    27ae:	09 95       	icall
    27b0:	08 0f       	add	r16, r24
    27b2:	19 1f       	adc	r17, r25
    27b4:	fe 01       	movw	r30, r28
    27b6:	ef cf       	rjmp	.-34     	; 0x2796 <_ZN5Print5printEPK19__FlashStringHelper+0x14>
    27b8:	c8 01       	movw	r24, r16
    27ba:	df 91       	pop	r29
    27bc:	cf 91       	pop	r28
    27be:	1f 91       	pop	r17
    27c0:	0f 91       	pop	r16
    27c2:	ff 90       	pop	r15
    27c4:	ef 90       	pop	r14
    27c6:	08 95       	ret

000027c8 <_ZN5Print5printEPKc>:
    27c8:	0c 94 b2 13 	jmp	0x2764	; 0x2764 <_ZN5Print5writeEPKc>

000027cc <_ZN5Print5printEc>:
    27cc:	dc 01       	movw	r26, r24
    27ce:	ed 91       	ld	r30, X+
    27d0:	fc 91       	ld	r31, X
    27d2:	01 90       	ld	r0, Z+
    27d4:	f0 81       	ld	r31, Z
    27d6:	e0 2d       	mov	r30, r0
    27d8:	09 94       	ijmp

000027da <_ZN5Print7printlnEv>:
    27da:	0f 93       	push	r16
    27dc:	1f 93       	push	r17
    27de:	cf 93       	push	r28
    27e0:	df 93       	push	r29
    27e2:	ec 01       	movw	r28, r24
    27e4:	6d e0       	ldi	r22, 0x0D	; 13
    27e6:	0e 94 e6 13 	call	0x27cc	; 0x27cc <_ZN5Print5printEc>
    27ea:	8c 01       	movw	r16, r24
    27ec:	6a e0       	ldi	r22, 0x0A	; 10
    27ee:	ce 01       	movw	r24, r28
    27f0:	0e 94 e6 13 	call	0x27cc	; 0x27cc <_ZN5Print5printEc>
    27f4:	80 0f       	add	r24, r16
    27f6:	91 1f       	adc	r25, r17
    27f8:	df 91       	pop	r29
    27fa:	cf 91       	pop	r28
    27fc:	1f 91       	pop	r17
    27fe:	0f 91       	pop	r16
    2800:	08 95       	ret

00002802 <_ZN5Print7printlnEPK19__FlashStringHelper>:
    2802:	0f 93       	push	r16
    2804:	1f 93       	push	r17
    2806:	cf 93       	push	r28
    2808:	df 93       	push	r29
    280a:	ec 01       	movw	r28, r24
    280c:	0e 94 c1 13 	call	0x2782	; 0x2782 <_ZN5Print5printEPK19__FlashStringHelper>
    2810:	8c 01       	movw	r16, r24
    2812:	ce 01       	movw	r24, r28
    2814:	0e 94 ed 13 	call	0x27da	; 0x27da <_ZN5Print7printlnEv>
    2818:	80 0f       	add	r24, r16
    281a:	91 1f       	adc	r25, r17
    281c:	df 91       	pop	r29
    281e:	cf 91       	pop	r28
    2820:	1f 91       	pop	r17
    2822:	0f 91       	pop	r16
    2824:	08 95       	ret

00002826 <_ZN5Print7printlnEPKc>:
    2826:	0f 93       	push	r16
    2828:	1f 93       	push	r17
    282a:	cf 93       	push	r28
    282c:	df 93       	push	r29
    282e:	ec 01       	movw	r28, r24
    2830:	0e 94 b2 13 	call	0x2764	; 0x2764 <_ZN5Print5writeEPKc>
    2834:	8c 01       	movw	r16, r24
    2836:	ce 01       	movw	r24, r28
    2838:	0e 94 ed 13 	call	0x27da	; 0x27da <_ZN5Print7printlnEv>
    283c:	80 0f       	add	r24, r16
    283e:	91 1f       	adc	r25, r17
    2840:	df 91       	pop	r29
    2842:	cf 91       	pop	r28
    2844:	1f 91       	pop	r17
    2846:	0f 91       	pop	r16
    2848:	08 95       	ret

0000284a <_ZN5Print11printNumberEmh>:
    284a:	8f 92       	push	r8
    284c:	9f 92       	push	r9
    284e:	af 92       	push	r10
    2850:	bf 92       	push	r11
    2852:	cf 92       	push	r12
    2854:	df 92       	push	r13
    2856:	ef 92       	push	r14
    2858:	ff 92       	push	r15
    285a:	0f 93       	push	r16
    285c:	1f 93       	push	r17
    285e:	cf 93       	push	r28
    2860:	df 93       	push	r29
    2862:	cd b7       	in	r28, 0x3d	; 61
    2864:	de b7       	in	r29, 0x3e	; 62
    2866:	a1 97       	sbiw	r28, 0x21	; 33
    2868:	0f b6       	in	r0, 0x3f	; 63
    286a:	f8 94       	cli
    286c:	de bf       	out	0x3e, r29	; 62
    286e:	0f be       	out	0x3f, r0	; 63
    2870:	cd bf       	out	0x3d, r28	; 61
    2872:	6c 01       	movw	r12, r24
    2874:	14 2f       	mov	r17, r20
    2876:	e5 2f       	mov	r30, r21
    2878:	cb 01       	movw	r24, r22
    287a:	02 2f       	mov	r16, r18
    287c:	19 a2       	std	Y+33, r1	; 0x21
    287e:	22 30       	cpi	r18, 0x02	; 2
    2880:	08 f4       	brcc	.+2      	; 0x2884 <_ZN5Print11printNumberEmh+0x3a>
    2882:	0a e0       	ldi	r16, 0x0A	; 10
    2884:	7e 01       	movw	r14, r28
    2886:	21 e2       	ldi	r18, 0x21	; 33
    2888:	e2 0e       	add	r14, r18
    288a:	f1 1c       	adc	r15, r1
    288c:	80 2e       	mov	r8, r16
    288e:	91 2c       	mov	r9, r1
    2890:	a1 2c       	mov	r10, r1
    2892:	b1 2c       	mov	r11, r1
    2894:	61 2f       	mov	r22, r17
    2896:	7e 2f       	mov	r23, r30
    2898:	a5 01       	movw	r20, r10
    289a:	94 01       	movw	r18, r8
    289c:	0e 94 93 19 	call	0x3326	; 0x3326 <__udivmodsi4>
    28a0:	02 9f       	mul	r16, r18
    28a2:	10 19       	sub	r17, r0
    28a4:	11 24       	eor	r1, r1
    28a6:	81 e0       	ldi	r24, 0x01	; 1
    28a8:	e8 1a       	sub	r14, r24
    28aa:	f1 08       	sbc	r15, r1
    28ac:	1a 30       	cpi	r17, 0x0A	; 10
    28ae:	10 f4       	brcc	.+4      	; 0x28b4 <_ZN5Print11printNumberEmh+0x6a>
    28b0:	10 5d       	subi	r17, 0xD0	; 208
    28b2:	01 c0       	rjmp	.+2      	; 0x28b6 <_ZN5Print11printNumberEmh+0x6c>
    28b4:	19 5c       	subi	r17, 0xC9	; 201
    28b6:	f7 01       	movw	r30, r14
    28b8:	10 83       	st	Z, r17
    28ba:	12 2f       	mov	r17, r18
    28bc:	e3 2f       	mov	r30, r19
    28be:	ca 01       	movw	r24, r20
    28c0:	23 2b       	or	r18, r19
    28c2:	24 2b       	or	r18, r20
    28c4:	25 2b       	or	r18, r21
    28c6:	31 f7       	brne	.-52     	; 0x2894 <_ZN5Print11printNumberEmh+0x4a>
    28c8:	b7 01       	movw	r22, r14
    28ca:	c6 01       	movw	r24, r12
    28cc:	0e 94 b2 13 	call	0x2764	; 0x2764 <_ZN5Print5writeEPKc>
    28d0:	a1 96       	adiw	r28, 0x21	; 33
    28d2:	0f b6       	in	r0, 0x3f	; 63
    28d4:	f8 94       	cli
    28d6:	de bf       	out	0x3e, r29	; 62
    28d8:	0f be       	out	0x3f, r0	; 63
    28da:	cd bf       	out	0x3d, r28	; 61
    28dc:	df 91       	pop	r29
    28de:	cf 91       	pop	r28
    28e0:	1f 91       	pop	r17
    28e2:	0f 91       	pop	r16
    28e4:	ff 90       	pop	r15
    28e6:	ef 90       	pop	r14
    28e8:	df 90       	pop	r13
    28ea:	cf 90       	pop	r12
    28ec:	bf 90       	pop	r11
    28ee:	af 90       	pop	r10
    28f0:	9f 90       	pop	r9
    28f2:	8f 90       	pop	r8
    28f4:	08 95       	ret

000028f6 <_ZN5Print5printEmi>:
    28f6:	21 15       	cp	r18, r1
    28f8:	31 05       	cpc	r19, r1
    28fa:	41 f4       	brne	.+16     	; 0x290c <_ZN5Print5printEmi+0x16>
    28fc:	dc 01       	movw	r26, r24
    28fe:	ed 91       	ld	r30, X+
    2900:	fc 91       	ld	r31, X
    2902:	01 90       	ld	r0, Z+
    2904:	f0 81       	ld	r31, Z
    2906:	e0 2d       	mov	r30, r0
    2908:	64 2f       	mov	r22, r20
    290a:	09 94       	ijmp
    290c:	0c 94 25 14 	jmp	0x284a	; 0x284a <_ZN5Print11printNumberEmh>

00002910 <_ZN5Print5printEhi>:
    2910:	9a 01       	movw	r18, r20
    2912:	46 2f       	mov	r20, r22
    2914:	50 e0       	ldi	r21, 0x00	; 0
    2916:	60 e0       	ldi	r22, 0x00	; 0
    2918:	70 e0       	ldi	r23, 0x00	; 0
    291a:	0c 94 7b 14 	jmp	0x28f6	; 0x28f6 <_ZN5Print5printEmi>

0000291e <_ZN5Print7printlnEhi>:
    291e:	0f 93       	push	r16
    2920:	1f 93       	push	r17
    2922:	cf 93       	push	r28
    2924:	df 93       	push	r29
    2926:	ec 01       	movw	r28, r24
    2928:	0e 94 88 14 	call	0x2910	; 0x2910 <_ZN5Print5printEhi>
    292c:	8c 01       	movw	r16, r24
    292e:	ce 01       	movw	r24, r28
    2930:	0e 94 ed 13 	call	0x27da	; 0x27da <_ZN5Print7printlnEv>
    2934:	80 0f       	add	r24, r16
    2936:	91 1f       	adc	r25, r17
    2938:	df 91       	pop	r29
    293a:	cf 91       	pop	r28
    293c:	1f 91       	pop	r17
    293e:	0f 91       	pop	r16
    2940:	08 95       	ret

00002942 <_ZN5Print5printEji>:
    2942:	9a 01       	movw	r18, r20
    2944:	ab 01       	movw	r20, r22
    2946:	60 e0       	ldi	r22, 0x00	; 0
    2948:	70 e0       	ldi	r23, 0x00	; 0
    294a:	0c 94 7b 14 	jmp	0x28f6	; 0x28f6 <_ZN5Print5printEmi>

0000294e <_ZN5Print7printlnEji>:
    294e:	0f 93       	push	r16
    2950:	1f 93       	push	r17
    2952:	cf 93       	push	r28
    2954:	df 93       	push	r29
    2956:	ec 01       	movw	r28, r24
    2958:	0e 94 a1 14 	call	0x2942	; 0x2942 <_ZN5Print5printEji>
    295c:	8c 01       	movw	r16, r24
    295e:	ce 01       	movw	r24, r28
    2960:	0e 94 ed 13 	call	0x27da	; 0x27da <_ZN5Print7printlnEv>
    2964:	80 0f       	add	r24, r16
    2966:	91 1f       	adc	r25, r17
    2968:	df 91       	pop	r29
    296a:	cf 91       	pop	r28
    296c:	1f 91       	pop	r17
    296e:	0f 91       	pop	r16
    2970:	08 95       	ret

00002972 <_ZN5Print5printEli>:
    2972:	cf 92       	push	r12
    2974:	df 92       	push	r13
    2976:	ef 92       	push	r14
    2978:	ff 92       	push	r15
    297a:	0f 93       	push	r16
    297c:	1f 93       	push	r17
    297e:	cf 93       	push	r28
    2980:	df 93       	push	r29
    2982:	21 15       	cp	r18, r1
    2984:	31 05       	cpc	r19, r1
    2986:	81 f4       	brne	.+32     	; 0x29a8 <_ZN5Print5printEli+0x36>
    2988:	dc 01       	movw	r26, r24
    298a:	ed 91       	ld	r30, X+
    298c:	fc 91       	ld	r31, X
    298e:	01 90       	ld	r0, Z+
    2990:	f0 81       	ld	r31, Z
    2992:	e0 2d       	mov	r30, r0
    2994:	64 2f       	mov	r22, r20
    2996:	df 91       	pop	r29
    2998:	cf 91       	pop	r28
    299a:	1f 91       	pop	r17
    299c:	0f 91       	pop	r16
    299e:	ff 90       	pop	r15
    29a0:	ef 90       	pop	r14
    29a2:	df 90       	pop	r13
    29a4:	cf 90       	pop	r12
    29a6:	09 94       	ijmp
    29a8:	2a 30       	cpi	r18, 0x0A	; 10
    29aa:	31 05       	cpc	r19, r1
    29ac:	01 f5       	brne	.+64     	; 0x29ee <_ZN5Print5printEli+0x7c>
    29ae:	77 ff       	sbrs	r23, 7
    29b0:	1d c0       	rjmp	.+58     	; 0x29ec <_ZN5Print5printEli+0x7a>
    29b2:	6a 01       	movw	r12, r20
    29b4:	7b 01       	movw	r14, r22
    29b6:	ec 01       	movw	r28, r24
    29b8:	6d e2       	ldi	r22, 0x2D	; 45
    29ba:	0e 94 e6 13 	call	0x27cc	; 0x27cc <_ZN5Print5printEc>
    29be:	8c 01       	movw	r16, r24
    29c0:	44 27       	eor	r20, r20
    29c2:	55 27       	eor	r21, r21
    29c4:	ba 01       	movw	r22, r20
    29c6:	4c 19       	sub	r20, r12
    29c8:	5d 09       	sbc	r21, r13
    29ca:	6e 09       	sbc	r22, r14
    29cc:	7f 09       	sbc	r23, r15
    29ce:	2a e0       	ldi	r18, 0x0A	; 10
    29d0:	ce 01       	movw	r24, r28
    29d2:	0e 94 25 14 	call	0x284a	; 0x284a <_ZN5Print11printNumberEmh>
    29d6:	80 0f       	add	r24, r16
    29d8:	91 1f       	adc	r25, r17
    29da:	df 91       	pop	r29
    29dc:	cf 91       	pop	r28
    29de:	1f 91       	pop	r17
    29e0:	0f 91       	pop	r16
    29e2:	ff 90       	pop	r15
    29e4:	ef 90       	pop	r14
    29e6:	df 90       	pop	r13
    29e8:	cf 90       	pop	r12
    29ea:	08 95       	ret
    29ec:	2a e0       	ldi	r18, 0x0A	; 10
    29ee:	df 91       	pop	r29
    29f0:	cf 91       	pop	r28
    29f2:	1f 91       	pop	r17
    29f4:	0f 91       	pop	r16
    29f6:	ff 90       	pop	r15
    29f8:	ef 90       	pop	r14
    29fa:	df 90       	pop	r13
    29fc:	cf 90       	pop	r12
    29fe:	0c 94 25 14 	jmp	0x284a	; 0x284a <_ZN5Print11printNumberEmh>

00002a02 <_ZN5Print5printEii>:
    2a02:	9a 01       	movw	r18, r20
    2a04:	ab 01       	movw	r20, r22
    2a06:	77 0f       	add	r23, r23
    2a08:	66 0b       	sbc	r22, r22
    2a0a:	77 0b       	sbc	r23, r23
    2a0c:	0c 94 b9 14 	jmp	0x2972	; 0x2972 <_ZN5Print5printEli>

00002a10 <_ZN5Print10printFloatEdh>:
    2a10:	4f 92       	push	r4
    2a12:	5f 92       	push	r5
    2a14:	6f 92       	push	r6
    2a16:	7f 92       	push	r7
    2a18:	af 92       	push	r10
    2a1a:	bf 92       	push	r11
    2a1c:	cf 92       	push	r12
    2a1e:	df 92       	push	r13
    2a20:	ef 92       	push	r14
    2a22:	ff 92       	push	r15
    2a24:	0f 93       	push	r16
    2a26:	1f 93       	push	r17
    2a28:	cf 93       	push	r28
    2a2a:	5c 01       	movw	r10, r24
    2a2c:	6a 01       	movw	r12, r20
    2a2e:	7b 01       	movw	r14, r22
    2a30:	72 2e       	mov	r7, r18
    2a32:	20 e0       	ldi	r18, 0x00	; 0
    2a34:	30 e0       	ldi	r19, 0x00	; 0
    2a36:	a9 01       	movw	r20, r18
    2a38:	c7 01       	movw	r24, r14
    2a3a:	b6 01       	movw	r22, r12
    2a3c:	0e 94 c7 17 	call	0x2f8e	; 0x2f8e <__cmpsf2>
    2a40:	87 ff       	sbrs	r24, 7
    2a42:	0a c0       	rjmp	.+20     	; 0x2a58 <_ZN5Print10printFloatEdh+0x48>
    2a44:	6d e2       	ldi	r22, 0x2D	; 45
    2a46:	c5 01       	movw	r24, r10
    2a48:	0e 94 e6 13 	call	0x27cc	; 0x27cc <_ZN5Print5printEc>
    2a4c:	8c 01       	movw	r16, r24
    2a4e:	f7 fa       	bst	r15, 7
    2a50:	f0 94       	com	r15
    2a52:	f7 f8       	bld	r15, 7
    2a54:	f0 94       	com	r15
    2a56:	02 c0       	rjmp	.+4      	; 0x2a5c <_ZN5Print10printFloatEdh+0x4c>
    2a58:	00 e0       	ldi	r16, 0x00	; 0
    2a5a:	10 e0       	ldi	r17, 0x00	; 0
    2a5c:	c0 e0       	ldi	r28, 0x00	; 0
    2a5e:	60 e0       	ldi	r22, 0x00	; 0
    2a60:	70 e0       	ldi	r23, 0x00	; 0
    2a62:	80 e0       	ldi	r24, 0x00	; 0
    2a64:	9f e3       	ldi	r25, 0x3F	; 63
    2a66:	c7 15       	cp	r28, r7
    2a68:	41 f0       	breq	.+16     	; 0x2a7a <_ZN5Print10printFloatEdh+0x6a>
    2a6a:	20 e0       	ldi	r18, 0x00	; 0
    2a6c:	30 e0       	ldi	r19, 0x00	; 0
    2a6e:	40 e2       	ldi	r20, 0x20	; 32
    2a70:	51 e4       	ldi	r21, 0x41	; 65
    2a72:	0e 94 cc 17 	call	0x2f98	; 0x2f98 <__divsf3>
    2a76:	cf 5f       	subi	r28, 0xFF	; 255
    2a78:	f6 cf       	rjmp	.-20     	; 0x2a66 <_ZN5Print10printFloatEdh+0x56>
    2a7a:	9b 01       	movw	r18, r22
    2a7c:	ac 01       	movw	r20, r24
    2a7e:	c7 01       	movw	r24, r14
    2a80:	b6 01       	movw	r22, r12
    2a82:	0e 94 5b 17 	call	0x2eb6	; 0x2eb6 <__addsf3>
    2a86:	6b 01       	movw	r12, r22
    2a88:	7c 01       	movw	r14, r24
    2a8a:	0e 94 45 18 	call	0x308a	; 0x308a <__fixunssfsi>
    2a8e:	2b 01       	movw	r4, r22
    2a90:	3c 01       	movw	r6, r24
    2a92:	2a e0       	ldi	r18, 0x0A	; 10
    2a94:	ab 01       	movw	r20, r22
    2a96:	bc 01       	movw	r22, r24
    2a98:	c5 01       	movw	r24, r10
    2a9a:	0e 94 25 14 	call	0x284a	; 0x284a <_ZN5Print11printNumberEmh>
    2a9e:	08 0f       	add	r16, r24
    2aa0:	19 1f       	adc	r17, r25
    2aa2:	cc 23       	and	r28, r28
    2aa4:	c1 f1       	breq	.+112    	; 0x2b16 <_ZN5Print10printFloatEdh+0x106>
    2aa6:	c3 01       	movw	r24, r6
    2aa8:	b2 01       	movw	r22, r4
    2aaa:	0e 94 74 18 	call	0x30e8	; 0x30e8 <__floatunsisf>
    2aae:	9b 01       	movw	r18, r22
    2ab0:	ac 01       	movw	r20, r24
    2ab2:	c7 01       	movw	r24, r14
    2ab4:	b6 01       	movw	r22, r12
    2ab6:	0e 94 5a 17 	call	0x2eb4	; 0x2eb4 <__subsf3>
    2aba:	6b 01       	movw	r12, r22
    2abc:	7c 01       	movw	r14, r24
    2abe:	62 e3       	ldi	r22, 0x32	; 50
    2ac0:	74 e0       	ldi	r23, 0x04	; 4
    2ac2:	c5 01       	movw	r24, r10
    2ac4:	0e 94 b2 13 	call	0x2764	; 0x2764 <_ZN5Print5writeEPKc>
    2ac8:	08 0f       	add	r16, r24
    2aca:	19 1f       	adc	r17, r25
    2acc:	20 e0       	ldi	r18, 0x00	; 0
    2ace:	30 e0       	ldi	r19, 0x00	; 0
    2ad0:	40 e2       	ldi	r20, 0x20	; 32
    2ad2:	51 e4       	ldi	r21, 0x41	; 65
    2ad4:	c7 01       	movw	r24, r14
    2ad6:	b6 01       	movw	r22, r12
    2ad8:	0e 94 26 19 	call	0x324c	; 0x324c <__mulsf3>
    2adc:	2b 01       	movw	r4, r22
    2ade:	3c 01       	movw	r6, r24
    2ae0:	0e 94 3e 18 	call	0x307c	; 0x307c <__fixsfsi>
    2ae4:	6b 01       	movw	r12, r22
    2ae6:	7c 01       	movw	r14, r24
    2ae8:	4a e0       	ldi	r20, 0x0A	; 10
    2aea:	50 e0       	ldi	r21, 0x00	; 0
    2aec:	c5 01       	movw	r24, r10
    2aee:	0e 94 01 15 	call	0x2a02	; 0x2a02 <_ZN5Print5printEii>
    2af2:	08 0f       	add	r16, r24
    2af4:	19 1f       	adc	r17, r25
    2af6:	b6 01       	movw	r22, r12
    2af8:	dd 0c       	add	r13, r13
    2afa:	88 0b       	sbc	r24, r24
    2afc:	99 0b       	sbc	r25, r25
    2afe:	0e 94 76 18 	call	0x30ec	; 0x30ec <__floatsisf>
    2b02:	9b 01       	movw	r18, r22
    2b04:	ac 01       	movw	r20, r24
    2b06:	c3 01       	movw	r24, r6
    2b08:	b2 01       	movw	r22, r4
    2b0a:	0e 94 5a 17 	call	0x2eb4	; 0x2eb4 <__subsf3>
    2b0e:	6b 01       	movw	r12, r22
    2b10:	7c 01       	movw	r14, r24
    2b12:	c1 50       	subi	r28, 0x01	; 1
    2b14:	d9 f6       	brne	.-74     	; 0x2acc <_ZN5Print10printFloatEdh+0xbc>
    2b16:	c8 01       	movw	r24, r16
    2b18:	cf 91       	pop	r28
    2b1a:	1f 91       	pop	r17
    2b1c:	0f 91       	pop	r16
    2b1e:	ff 90       	pop	r15
    2b20:	ef 90       	pop	r14
    2b22:	df 90       	pop	r13
    2b24:	cf 90       	pop	r12
    2b26:	bf 90       	pop	r11
    2b28:	af 90       	pop	r10
    2b2a:	7f 90       	pop	r7
    2b2c:	6f 90       	pop	r6
    2b2e:	5f 90       	pop	r5
    2b30:	4f 90       	pop	r4
    2b32:	08 95       	ret

00002b34 <_ZN5Print5printEdi>:
    2b34:	0c 94 08 15 	jmp	0x2a10	; 0x2a10 <_ZN5Print10printFloatEdh>

00002b38 <_ZN5Print7printlnEdi>:
    2b38:	0f 93       	push	r16
    2b3a:	1f 93       	push	r17
    2b3c:	cf 93       	push	r28
    2b3e:	df 93       	push	r29
    2b40:	ec 01       	movw	r28, r24
    2b42:	0e 94 08 15 	call	0x2a10	; 0x2a10 <_ZN5Print10printFloatEdh>
    2b46:	8c 01       	movw	r16, r24
    2b48:	ce 01       	movw	r24, r28
    2b4a:	0e 94 ed 13 	call	0x27da	; 0x27da <_ZN5Print7printlnEv>
    2b4e:	80 0f       	add	r24, r16
    2b50:	91 1f       	adc	r25, r17
    2b52:	df 91       	pop	r29
    2b54:	cf 91       	pop	r28
    2b56:	1f 91       	pop	r17
    2b58:	0f 91       	pop	r16
    2b5a:	08 95       	ret

00002b5c <_ZN8SPIClass5beginEv>:
    2b5c:	61 e0       	ldi	r22, 0x01	; 1
    2b5e:	8d e0       	ldi	r24, 0x0D	; 13
    2b60:	0e 94 ef 16 	call	0x2dde	; 0x2dde <pinMode>
    2b64:	61 e0       	ldi	r22, 0x01	; 1
    2b66:	8b e0       	ldi	r24, 0x0B	; 11
    2b68:	0e 94 ef 16 	call	0x2dde	; 0x2dde <pinMode>
    2b6c:	61 e0       	ldi	r22, 0x01	; 1
    2b6e:	8a e0       	ldi	r24, 0x0A	; 10
    2b70:	0e 94 ef 16 	call	0x2dde	; 0x2dde <pinMode>
    2b74:	60 e0       	ldi	r22, 0x00	; 0
    2b76:	8d e0       	ldi	r24, 0x0D	; 13
    2b78:	0e 94 2b 17 	call	0x2e56	; 0x2e56 <digitalWrite>
    2b7c:	60 e0       	ldi	r22, 0x00	; 0
    2b7e:	8b e0       	ldi	r24, 0x0B	; 11
    2b80:	0e 94 2b 17 	call	0x2e56	; 0x2e56 <digitalWrite>
    2b84:	61 e0       	ldi	r22, 0x01	; 1
    2b86:	8a e0       	ldi	r24, 0x0A	; 10
    2b88:	0e 94 2b 17 	call	0x2e56	; 0x2e56 <digitalWrite>
    2b8c:	8c b5       	in	r24, 0x2c	; 44
    2b8e:	80 61       	ori	r24, 0x10	; 16
    2b90:	8c bd       	out	0x2c, r24	; 44
    2b92:	8c b5       	in	r24, 0x2c	; 44
    2b94:	80 64       	ori	r24, 0x40	; 64
    2b96:	8c bd       	out	0x2c, r24	; 44
    2b98:	08 95       	ret

00002b9a <_ZN8SPIClass11setBitOrderEh>:
    2b9a:	81 11       	cpse	r24, r1
    2b9c:	03 c0       	rjmp	.+6      	; 0x2ba4 <_ZN8SPIClass11setBitOrderEh+0xa>
    2b9e:	8c b5       	in	r24, 0x2c	; 44
    2ba0:	80 62       	ori	r24, 0x20	; 32
    2ba2:	02 c0       	rjmp	.+4      	; 0x2ba8 <_ZN8SPIClass11setBitOrderEh+0xe>
    2ba4:	8c b5       	in	r24, 0x2c	; 44
    2ba6:	8f 7d       	andi	r24, 0xDF	; 223
    2ba8:	8c bd       	out	0x2c, r24	; 44
    2baa:	08 95       	ret

00002bac <_ZN8SPIClass11setDataModeEh>:
    2bac:	9c b5       	in	r25, 0x2c	; 44
    2bae:	93 7f       	andi	r25, 0xF3	; 243
    2bb0:	89 2b       	or	r24, r25
    2bb2:	8c bd       	out	0x2c, r24	; 44
    2bb4:	08 95       	ret

00002bb6 <_ZN8SPIClass15setClockDividerEh>:
    2bb6:	9c b5       	in	r25, 0x2c	; 44
    2bb8:	9c 7f       	andi	r25, 0xFC	; 252
    2bba:	28 2f       	mov	r18, r24
    2bbc:	23 70       	andi	r18, 0x03	; 3
    2bbe:	92 2b       	or	r25, r18
    2bc0:	9c bd       	out	0x2c, r25	; 44
    2bc2:	2d b5       	in	r18, 0x2d	; 45
    2bc4:	82 fb       	bst	r24, 2
    2bc6:	99 27       	eor	r25, r25
    2bc8:	90 f9       	bld	r25, 0
    2bca:	82 2f       	mov	r24, r18
    2bcc:	8e 7f       	andi	r24, 0xFE	; 254
    2bce:	89 2b       	or	r24, r25
    2bd0:	8d bd       	out	0x2d, r24	; 45
    2bd2:	08 95       	ret

00002bd4 <__vector_16>:
    2bd4:	1f 92       	push	r1
    2bd6:	0f 92       	push	r0
    2bd8:	0f b6       	in	r0, 0x3f	; 63
    2bda:	0f 92       	push	r0
    2bdc:	11 24       	eor	r1, r1
    2bde:	2f 93       	push	r18
    2be0:	3f 93       	push	r19
    2be2:	8f 93       	push	r24
    2be4:	9f 93       	push	r25
    2be6:	af 93       	push	r26
    2be8:	bf 93       	push	r27
    2bea:	80 91 33 05 	lds	r24, 0x0533	; 0x800533 <timer0_millis>
    2bee:	90 91 34 05 	lds	r25, 0x0534	; 0x800534 <timer0_millis+0x1>
    2bf2:	a0 91 35 05 	lds	r26, 0x0535	; 0x800535 <timer0_millis+0x2>
    2bf6:	b0 91 36 05 	lds	r27, 0x0536	; 0x800536 <timer0_millis+0x3>
    2bfa:	30 91 32 05 	lds	r19, 0x0532	; 0x800532 <timer0_fract>
    2bfe:	23 e0       	ldi	r18, 0x03	; 3
    2c00:	23 0f       	add	r18, r19
    2c02:	2d 37       	cpi	r18, 0x7D	; 125
    2c04:	20 f4       	brcc	.+8      	; 0x2c0e <__vector_16+0x3a>
    2c06:	01 96       	adiw	r24, 0x01	; 1
    2c08:	a1 1d       	adc	r26, r1
    2c0a:	b1 1d       	adc	r27, r1
    2c0c:	05 c0       	rjmp	.+10     	; 0x2c18 <__vector_16+0x44>
    2c0e:	26 e8       	ldi	r18, 0x86	; 134
    2c10:	23 0f       	add	r18, r19
    2c12:	02 96       	adiw	r24, 0x02	; 2
    2c14:	a1 1d       	adc	r26, r1
    2c16:	b1 1d       	adc	r27, r1
    2c18:	20 93 32 05 	sts	0x0532, r18	; 0x800532 <timer0_fract>
    2c1c:	80 93 33 05 	sts	0x0533, r24	; 0x800533 <timer0_millis>
    2c20:	90 93 34 05 	sts	0x0534, r25	; 0x800534 <timer0_millis+0x1>
    2c24:	a0 93 35 05 	sts	0x0535, r26	; 0x800535 <timer0_millis+0x2>
    2c28:	b0 93 36 05 	sts	0x0536, r27	; 0x800536 <timer0_millis+0x3>
    2c2c:	80 91 37 05 	lds	r24, 0x0537	; 0x800537 <timer0_overflow_count>
    2c30:	90 91 38 05 	lds	r25, 0x0538	; 0x800538 <timer0_overflow_count+0x1>
    2c34:	a0 91 39 05 	lds	r26, 0x0539	; 0x800539 <timer0_overflow_count+0x2>
    2c38:	b0 91 3a 05 	lds	r27, 0x053A	; 0x80053a <timer0_overflow_count+0x3>
    2c3c:	01 96       	adiw	r24, 0x01	; 1
    2c3e:	a1 1d       	adc	r26, r1
    2c40:	b1 1d       	adc	r27, r1
    2c42:	80 93 37 05 	sts	0x0537, r24	; 0x800537 <timer0_overflow_count>
    2c46:	90 93 38 05 	sts	0x0538, r25	; 0x800538 <timer0_overflow_count+0x1>
    2c4a:	a0 93 39 05 	sts	0x0539, r26	; 0x800539 <timer0_overflow_count+0x2>
    2c4e:	b0 93 3a 05 	sts	0x053A, r27	; 0x80053a <timer0_overflow_count+0x3>
    2c52:	bf 91       	pop	r27
    2c54:	af 91       	pop	r26
    2c56:	9f 91       	pop	r25
    2c58:	8f 91       	pop	r24
    2c5a:	3f 91       	pop	r19
    2c5c:	2f 91       	pop	r18
    2c5e:	0f 90       	pop	r0
    2c60:	0f be       	out	0x3f, r0	; 63
    2c62:	0f 90       	pop	r0
    2c64:	1f 90       	pop	r1
    2c66:	18 95       	reti

00002c68 <millis>:
    2c68:	2f b7       	in	r18, 0x3f	; 63
    2c6a:	f8 94       	cli
    2c6c:	60 91 33 05 	lds	r22, 0x0533	; 0x800533 <timer0_millis>
    2c70:	70 91 34 05 	lds	r23, 0x0534	; 0x800534 <timer0_millis+0x1>
    2c74:	80 91 35 05 	lds	r24, 0x0535	; 0x800535 <timer0_millis+0x2>
    2c78:	90 91 36 05 	lds	r25, 0x0536	; 0x800536 <timer0_millis+0x3>
    2c7c:	2f bf       	out	0x3f, r18	; 63
    2c7e:	08 95       	ret

00002c80 <micros>:
    2c80:	3f b7       	in	r19, 0x3f	; 63
    2c82:	f8 94       	cli
    2c84:	80 91 37 05 	lds	r24, 0x0537	; 0x800537 <timer0_overflow_count>
    2c88:	90 91 38 05 	lds	r25, 0x0538	; 0x800538 <timer0_overflow_count+0x1>
    2c8c:	a0 91 39 05 	lds	r26, 0x0539	; 0x800539 <timer0_overflow_count+0x2>
    2c90:	b0 91 3a 05 	lds	r27, 0x053A	; 0x80053a <timer0_overflow_count+0x3>
    2c94:	26 b5       	in	r18, 0x26	; 38
    2c96:	a8 9b       	sbis	0x15, 0	; 21
    2c98:	05 c0       	rjmp	.+10     	; 0x2ca4 <micros+0x24>
    2c9a:	2f 3f       	cpi	r18, 0xFF	; 255
    2c9c:	19 f0       	breq	.+6      	; 0x2ca4 <micros+0x24>
    2c9e:	01 96       	adiw	r24, 0x01	; 1
    2ca0:	a1 1d       	adc	r26, r1
    2ca2:	b1 1d       	adc	r27, r1
    2ca4:	3f bf       	out	0x3f, r19	; 63
    2ca6:	ba 2f       	mov	r27, r26
    2ca8:	a9 2f       	mov	r26, r25
    2caa:	98 2f       	mov	r25, r24
    2cac:	88 27       	eor	r24, r24
    2cae:	82 0f       	add	r24, r18
    2cb0:	91 1d       	adc	r25, r1
    2cb2:	a1 1d       	adc	r26, r1
    2cb4:	b1 1d       	adc	r27, r1
    2cb6:	bc 01       	movw	r22, r24
    2cb8:	cd 01       	movw	r24, r26
    2cba:	42 e0       	ldi	r20, 0x02	; 2
    2cbc:	66 0f       	add	r22, r22
    2cbe:	77 1f       	adc	r23, r23
    2cc0:	88 1f       	adc	r24, r24
    2cc2:	99 1f       	adc	r25, r25
    2cc4:	4a 95       	dec	r20
    2cc6:	d1 f7       	brne	.-12     	; 0x2cbc <micros+0x3c>
    2cc8:	08 95       	ret

00002cca <delay>:
    2cca:	cf 92       	push	r12
    2ccc:	df 92       	push	r13
    2cce:	ef 92       	push	r14
    2cd0:	ff 92       	push	r15
    2cd2:	cf 93       	push	r28
    2cd4:	df 93       	push	r29
    2cd6:	6b 01       	movw	r12, r22
    2cd8:	7c 01       	movw	r14, r24
    2cda:	0e 94 40 16 	call	0x2c80	; 0x2c80 <micros>
    2cde:	eb 01       	movw	r28, r22
    2ce0:	c1 14       	cp	r12, r1
    2ce2:	d1 04       	cpc	r13, r1
    2ce4:	e1 04       	cpc	r14, r1
    2ce6:	f1 04       	cpc	r15, r1
    2ce8:	79 f0       	breq	.+30     	; 0x2d08 <delay+0x3e>
    2cea:	0e 94 40 16 	call	0x2c80	; 0x2c80 <micros>
    2cee:	6c 1b       	sub	r22, r28
    2cf0:	7d 0b       	sbc	r23, r29
    2cf2:	68 3e       	cpi	r22, 0xE8	; 232
    2cf4:	73 40       	sbci	r23, 0x03	; 3
    2cf6:	a0 f3       	brcs	.-24     	; 0x2ce0 <delay+0x16>
    2cf8:	81 e0       	ldi	r24, 0x01	; 1
    2cfa:	c8 1a       	sub	r12, r24
    2cfc:	d1 08       	sbc	r13, r1
    2cfe:	e1 08       	sbc	r14, r1
    2d00:	f1 08       	sbc	r15, r1
    2d02:	c8 51       	subi	r28, 0x18	; 24
    2d04:	dc 4f       	sbci	r29, 0xFC	; 252
    2d06:	ec cf       	rjmp	.-40     	; 0x2ce0 <delay+0x16>
    2d08:	df 91       	pop	r29
    2d0a:	cf 91       	pop	r28
    2d0c:	ff 90       	pop	r15
    2d0e:	ef 90       	pop	r14
    2d10:	df 90       	pop	r13
    2d12:	cf 90       	pop	r12
    2d14:	08 95       	ret

00002d16 <init>:
    2d16:	78 94       	sei
    2d18:	84 b5       	in	r24, 0x24	; 36
    2d1a:	82 60       	ori	r24, 0x02	; 2
    2d1c:	84 bd       	out	0x24, r24	; 36
    2d1e:	84 b5       	in	r24, 0x24	; 36
    2d20:	81 60       	ori	r24, 0x01	; 1
    2d22:	84 bd       	out	0x24, r24	; 36
    2d24:	85 b5       	in	r24, 0x25	; 37
    2d26:	82 60       	ori	r24, 0x02	; 2
    2d28:	85 bd       	out	0x25, r24	; 37
    2d2a:	85 b5       	in	r24, 0x25	; 37
    2d2c:	81 60       	ori	r24, 0x01	; 1
    2d2e:	85 bd       	out	0x25, r24	; 37
    2d30:	ee e6       	ldi	r30, 0x6E	; 110
    2d32:	f0 e0       	ldi	r31, 0x00	; 0
    2d34:	80 81       	ld	r24, Z
    2d36:	81 60       	ori	r24, 0x01	; 1
    2d38:	80 83       	st	Z, r24
    2d3a:	e1 e8       	ldi	r30, 0x81	; 129
    2d3c:	f0 e0       	ldi	r31, 0x00	; 0
    2d3e:	10 82       	st	Z, r1
    2d40:	80 81       	ld	r24, Z
    2d42:	82 60       	ori	r24, 0x02	; 2
    2d44:	80 83       	st	Z, r24
    2d46:	80 81       	ld	r24, Z
    2d48:	81 60       	ori	r24, 0x01	; 1
    2d4a:	80 83       	st	Z, r24
    2d4c:	e0 e8       	ldi	r30, 0x80	; 128
    2d4e:	f0 e0       	ldi	r31, 0x00	; 0
    2d50:	80 81       	ld	r24, Z
    2d52:	81 60       	ori	r24, 0x01	; 1
    2d54:	80 83       	st	Z, r24
    2d56:	e1 eb       	ldi	r30, 0xB1	; 177
    2d58:	f0 e0       	ldi	r31, 0x00	; 0
    2d5a:	80 81       	ld	r24, Z
    2d5c:	84 60       	ori	r24, 0x04	; 4
    2d5e:	80 83       	st	Z, r24
    2d60:	e0 eb       	ldi	r30, 0xB0	; 176
    2d62:	f0 e0       	ldi	r31, 0x00	; 0
    2d64:	80 81       	ld	r24, Z
    2d66:	81 60       	ori	r24, 0x01	; 1
    2d68:	80 83       	st	Z, r24
    2d6a:	ea e7       	ldi	r30, 0x7A	; 122
    2d6c:	f0 e0       	ldi	r31, 0x00	; 0
    2d6e:	80 81       	ld	r24, Z
    2d70:	84 60       	ori	r24, 0x04	; 4
    2d72:	80 83       	st	Z, r24
    2d74:	80 81       	ld	r24, Z
    2d76:	82 60       	ori	r24, 0x02	; 2
    2d78:	80 83       	st	Z, r24
    2d7a:	80 81       	ld	r24, Z
    2d7c:	81 60       	ori	r24, 0x01	; 1
    2d7e:	80 83       	st	Z, r24
    2d80:	80 81       	ld	r24, Z
    2d82:	80 68       	ori	r24, 0x80	; 128
    2d84:	80 83       	st	Z, r24
    2d86:	10 92 c1 00 	sts	0x00C1, r1	; 0x8000c1 <__TEXT_REGION_LENGTH__+0x7e00c1>
    2d8a:	08 95       	ret

00002d8c <turnOffPWM>:
    2d8c:	83 30       	cpi	r24, 0x03	; 3
    2d8e:	81 f0       	breq	.+32     	; 0x2db0 <turnOffPWM+0x24>
    2d90:	28 f4       	brcc	.+10     	; 0x2d9c <turnOffPWM+0x10>
    2d92:	81 30       	cpi	r24, 0x01	; 1
    2d94:	99 f0       	breq	.+38     	; 0x2dbc <turnOffPWM+0x30>
    2d96:	82 30       	cpi	r24, 0x02	; 2
    2d98:	a1 f0       	breq	.+40     	; 0x2dc2 <turnOffPWM+0x36>
    2d9a:	08 95       	ret
    2d9c:	86 30       	cpi	r24, 0x06	; 6
    2d9e:	a9 f0       	breq	.+42     	; 0x2dca <turnOffPWM+0x3e>
    2da0:	87 30       	cpi	r24, 0x07	; 7
    2da2:	b9 f0       	breq	.+46     	; 0x2dd2 <turnOffPWM+0x46>
    2da4:	84 30       	cpi	r24, 0x04	; 4
    2da6:	d1 f4       	brne	.+52     	; 0x2ddc <turnOffPWM+0x50>
    2da8:	80 91 80 00 	lds	r24, 0x0080	; 0x800080 <__TEXT_REGION_LENGTH__+0x7e0080>
    2dac:	8f 7d       	andi	r24, 0xDF	; 223
    2dae:	03 c0       	rjmp	.+6      	; 0x2db6 <turnOffPWM+0x2a>
    2db0:	80 91 80 00 	lds	r24, 0x0080	; 0x800080 <__TEXT_REGION_LENGTH__+0x7e0080>
    2db4:	8f 77       	andi	r24, 0x7F	; 127
    2db6:	80 93 80 00 	sts	0x0080, r24	; 0x800080 <__TEXT_REGION_LENGTH__+0x7e0080>
    2dba:	08 95       	ret
    2dbc:	84 b5       	in	r24, 0x24	; 36
    2dbe:	8f 77       	andi	r24, 0x7F	; 127
    2dc0:	02 c0       	rjmp	.+4      	; 0x2dc6 <turnOffPWM+0x3a>
    2dc2:	84 b5       	in	r24, 0x24	; 36
    2dc4:	8f 7d       	andi	r24, 0xDF	; 223
    2dc6:	84 bd       	out	0x24, r24	; 36
    2dc8:	08 95       	ret
    2dca:	80 91 b0 00 	lds	r24, 0x00B0	; 0x8000b0 <__TEXT_REGION_LENGTH__+0x7e00b0>
    2dce:	8f 77       	andi	r24, 0x7F	; 127
    2dd0:	03 c0       	rjmp	.+6      	; 0x2dd8 <turnOffPWM+0x4c>
    2dd2:	80 91 b0 00 	lds	r24, 0x00B0	; 0x8000b0 <__TEXT_REGION_LENGTH__+0x7e00b0>
    2dd6:	8f 7d       	andi	r24, 0xDF	; 223
    2dd8:	80 93 b0 00 	sts	0x00B0, r24	; 0x8000b0 <__TEXT_REGION_LENGTH__+0x7e00b0>
    2ddc:	08 95       	ret

00002dde <pinMode>:
    2dde:	cf 93       	push	r28
    2de0:	df 93       	push	r29
    2de2:	90 e0       	ldi	r25, 0x00	; 0
    2de4:	fc 01       	movw	r30, r24
    2de6:	e7 5c       	subi	r30, 0xC7	; 199
    2de8:	f9 4f       	sbci	r31, 0xF9	; 249
    2dea:	24 91       	lpm	r18, Z
    2dec:	fc 01       	movw	r30, r24
    2dee:	e3 5b       	subi	r30, 0xB3	; 179
    2df0:	f9 4f       	sbci	r31, 0xF9	; 249
    2df2:	84 91       	lpm	r24, Z
    2df4:	88 23       	and	r24, r24
    2df6:	61 f1       	breq	.+88     	; 0x2e50 <pinMode+0x72>
    2df8:	90 e0       	ldi	r25, 0x00	; 0
    2dfa:	88 0f       	add	r24, r24
    2dfc:	99 1f       	adc	r25, r25
    2dfe:	fc 01       	movw	r30, r24
    2e00:	e5 59       	subi	r30, 0x95	; 149
    2e02:	f9 4f       	sbci	r31, 0xF9	; 249
    2e04:	c5 91       	lpm	r28, Z+
    2e06:	d4 91       	lpm	r29, Z
    2e08:	fc 01       	movw	r30, r24
    2e0a:	ef 59       	subi	r30, 0x9F	; 159
    2e0c:	f9 4f       	sbci	r31, 0xF9	; 249
    2e0e:	a5 91       	lpm	r26, Z+
    2e10:	b4 91       	lpm	r27, Z
    2e12:	61 11       	cpse	r22, r1
    2e14:	09 c0       	rjmp	.+18     	; 0x2e28 <pinMode+0x4a>
    2e16:	9f b7       	in	r25, 0x3f	; 63
    2e18:	f8 94       	cli
    2e1a:	88 81       	ld	r24, Y
    2e1c:	20 95       	com	r18
    2e1e:	82 23       	and	r24, r18
    2e20:	88 83       	st	Y, r24
    2e22:	ec 91       	ld	r30, X
    2e24:	2e 23       	and	r18, r30
    2e26:	0b c0       	rjmp	.+22     	; 0x2e3e <pinMode+0x60>
    2e28:	62 30       	cpi	r22, 0x02	; 2
    2e2a:	61 f4       	brne	.+24     	; 0x2e44 <pinMode+0x66>
    2e2c:	9f b7       	in	r25, 0x3f	; 63
    2e2e:	f8 94       	cli
    2e30:	88 81       	ld	r24, Y
    2e32:	32 2f       	mov	r19, r18
    2e34:	30 95       	com	r19
    2e36:	83 23       	and	r24, r19
    2e38:	88 83       	st	Y, r24
    2e3a:	ec 91       	ld	r30, X
    2e3c:	2e 2b       	or	r18, r30
    2e3e:	2c 93       	st	X, r18
    2e40:	9f bf       	out	0x3f, r25	; 63
    2e42:	06 c0       	rjmp	.+12     	; 0x2e50 <pinMode+0x72>
    2e44:	8f b7       	in	r24, 0x3f	; 63
    2e46:	f8 94       	cli
    2e48:	e8 81       	ld	r30, Y
    2e4a:	2e 2b       	or	r18, r30
    2e4c:	28 83       	st	Y, r18
    2e4e:	8f bf       	out	0x3f, r24	; 63
    2e50:	df 91       	pop	r29
    2e52:	cf 91       	pop	r28
    2e54:	08 95       	ret

00002e56 <digitalWrite>:
    2e56:	1f 93       	push	r17
    2e58:	cf 93       	push	r28
    2e5a:	df 93       	push	r29
    2e5c:	28 2f       	mov	r18, r24
    2e5e:	30 e0       	ldi	r19, 0x00	; 0
    2e60:	f9 01       	movw	r30, r18
    2e62:	eb 5d       	subi	r30, 0xDB	; 219
    2e64:	f9 4f       	sbci	r31, 0xF9	; 249
    2e66:	84 91       	lpm	r24, Z
    2e68:	f9 01       	movw	r30, r18
    2e6a:	e7 5c       	subi	r30, 0xC7	; 199
    2e6c:	f9 4f       	sbci	r31, 0xF9	; 249
    2e6e:	d4 91       	lpm	r29, Z
    2e70:	f9 01       	movw	r30, r18
    2e72:	e3 5b       	subi	r30, 0xB3	; 179
    2e74:	f9 4f       	sbci	r31, 0xF9	; 249
    2e76:	c4 91       	lpm	r28, Z
    2e78:	cc 23       	and	r28, r28
    2e7a:	c1 f0       	breq	.+48     	; 0x2eac <digitalWrite+0x56>
    2e7c:	16 2f       	mov	r17, r22
    2e7e:	81 11       	cpse	r24, r1
    2e80:	0e 94 c6 16 	call	0x2d8c	; 0x2d8c <turnOffPWM>
    2e84:	ec 2f       	mov	r30, r28
    2e86:	f0 e0       	ldi	r31, 0x00	; 0
    2e88:	ee 0f       	add	r30, r30
    2e8a:	ff 1f       	adc	r31, r31
    2e8c:	ef 59       	subi	r30, 0x9F	; 159
    2e8e:	f9 4f       	sbci	r31, 0xF9	; 249
    2e90:	a5 91       	lpm	r26, Z+
    2e92:	b4 91       	lpm	r27, Z
    2e94:	9f b7       	in	r25, 0x3f	; 63
    2e96:	f8 94       	cli
    2e98:	11 11       	cpse	r17, r1
    2e9a:	04 c0       	rjmp	.+8      	; 0x2ea4 <digitalWrite+0x4e>
    2e9c:	8c 91       	ld	r24, X
    2e9e:	d0 95       	com	r29
    2ea0:	d8 23       	and	r29, r24
    2ea2:	02 c0       	rjmp	.+4      	; 0x2ea8 <digitalWrite+0x52>
    2ea4:	ec 91       	ld	r30, X
    2ea6:	de 2b       	or	r29, r30
    2ea8:	dc 93       	st	X, r29
    2eaa:	9f bf       	out	0x3f, r25	; 63
    2eac:	df 91       	pop	r29
    2eae:	cf 91       	pop	r28
    2eb0:	1f 91       	pop	r17
    2eb2:	08 95       	ret

00002eb4 <__subsf3>:
    2eb4:	50 58       	subi	r21, 0x80	; 128

00002eb6 <__addsf3>:
    2eb6:	bb 27       	eor	r27, r27
    2eb8:	aa 27       	eor	r26, r26
    2eba:	0e 94 72 17 	call	0x2ee4	; 0x2ee4 <__addsf3x>
    2ebe:	0c 94 ec 18 	jmp	0x31d8	; 0x31d8 <__fp_round>
    2ec2:	0e 94 de 18 	call	0x31bc	; 0x31bc <__fp_pscA>
    2ec6:	38 f0       	brcs	.+14     	; 0x2ed6 <__addsf3+0x20>
    2ec8:	0e 94 e5 18 	call	0x31ca	; 0x31ca <__fp_pscB>
    2ecc:	20 f0       	brcs	.+8      	; 0x2ed6 <__addsf3+0x20>
    2ece:	39 f4       	brne	.+14     	; 0x2ede <__addsf3+0x28>
    2ed0:	9f 3f       	cpi	r25, 0xFF	; 255
    2ed2:	19 f4       	brne	.+6      	; 0x2eda <__addsf3+0x24>
    2ed4:	26 f4       	brtc	.+8      	; 0x2ede <__addsf3+0x28>
    2ed6:	0c 94 db 18 	jmp	0x31b6	; 0x31b6 <__fp_nan>
    2eda:	0e f4       	brtc	.+2      	; 0x2ede <__addsf3+0x28>
    2edc:	e0 95       	com	r30
    2ede:	e7 fb       	bst	r30, 7
    2ee0:	0c 94 d5 18 	jmp	0x31aa	; 0x31aa <__fp_inf>

00002ee4 <__addsf3x>:
    2ee4:	e9 2f       	mov	r30, r25
    2ee6:	0e 94 fd 18 	call	0x31fa	; 0x31fa <__fp_split3>
    2eea:	58 f3       	brcs	.-42     	; 0x2ec2 <__addsf3+0xc>
    2eec:	ba 17       	cp	r27, r26
    2eee:	62 07       	cpc	r22, r18
    2ef0:	73 07       	cpc	r23, r19
    2ef2:	84 07       	cpc	r24, r20
    2ef4:	95 07       	cpc	r25, r21
    2ef6:	20 f0       	brcs	.+8      	; 0x2f00 <__addsf3x+0x1c>
    2ef8:	79 f4       	brne	.+30     	; 0x2f18 <__addsf3x+0x34>
    2efa:	a6 f5       	brtc	.+104    	; 0x2f64 <__addsf3x+0x80>
    2efc:	0c 94 1f 19 	jmp	0x323e	; 0x323e <__fp_zero>
    2f00:	0e f4       	brtc	.+2      	; 0x2f04 <__addsf3x+0x20>
    2f02:	e0 95       	com	r30
    2f04:	0b 2e       	mov	r0, r27
    2f06:	ba 2f       	mov	r27, r26
    2f08:	a0 2d       	mov	r26, r0
    2f0a:	0b 01       	movw	r0, r22
    2f0c:	b9 01       	movw	r22, r18
    2f0e:	90 01       	movw	r18, r0
    2f10:	0c 01       	movw	r0, r24
    2f12:	ca 01       	movw	r24, r20
    2f14:	a0 01       	movw	r20, r0
    2f16:	11 24       	eor	r1, r1
    2f18:	ff 27       	eor	r31, r31
    2f1a:	59 1b       	sub	r21, r25
    2f1c:	99 f0       	breq	.+38     	; 0x2f44 <__addsf3x+0x60>
    2f1e:	59 3f       	cpi	r21, 0xF9	; 249
    2f20:	50 f4       	brcc	.+20     	; 0x2f36 <__addsf3x+0x52>
    2f22:	50 3e       	cpi	r21, 0xE0	; 224
    2f24:	68 f1       	brcs	.+90     	; 0x2f80 <__addsf3x+0x9c>
    2f26:	1a 16       	cp	r1, r26
    2f28:	f0 40       	sbci	r31, 0x00	; 0
    2f2a:	a2 2f       	mov	r26, r18
    2f2c:	23 2f       	mov	r18, r19
    2f2e:	34 2f       	mov	r19, r20
    2f30:	44 27       	eor	r20, r20
    2f32:	58 5f       	subi	r21, 0xF8	; 248
    2f34:	f3 cf       	rjmp	.-26     	; 0x2f1c <__addsf3x+0x38>
    2f36:	46 95       	lsr	r20
    2f38:	37 95       	ror	r19
    2f3a:	27 95       	ror	r18
    2f3c:	a7 95       	ror	r26
    2f3e:	f0 40       	sbci	r31, 0x00	; 0
    2f40:	53 95       	inc	r21
    2f42:	c9 f7       	brne	.-14     	; 0x2f36 <__addsf3x+0x52>
    2f44:	7e f4       	brtc	.+30     	; 0x2f64 <__addsf3x+0x80>
    2f46:	1f 16       	cp	r1, r31
    2f48:	ba 0b       	sbc	r27, r26
    2f4a:	62 0b       	sbc	r22, r18
    2f4c:	73 0b       	sbc	r23, r19
    2f4e:	84 0b       	sbc	r24, r20
    2f50:	ba f0       	brmi	.+46     	; 0x2f80 <__addsf3x+0x9c>
    2f52:	91 50       	subi	r25, 0x01	; 1
    2f54:	a1 f0       	breq	.+40     	; 0x2f7e <__addsf3x+0x9a>
    2f56:	ff 0f       	add	r31, r31
    2f58:	bb 1f       	adc	r27, r27
    2f5a:	66 1f       	adc	r22, r22
    2f5c:	77 1f       	adc	r23, r23
    2f5e:	88 1f       	adc	r24, r24
    2f60:	c2 f7       	brpl	.-16     	; 0x2f52 <__addsf3x+0x6e>
    2f62:	0e c0       	rjmp	.+28     	; 0x2f80 <__addsf3x+0x9c>
    2f64:	ba 0f       	add	r27, r26
    2f66:	62 1f       	adc	r22, r18
    2f68:	73 1f       	adc	r23, r19
    2f6a:	84 1f       	adc	r24, r20
    2f6c:	48 f4       	brcc	.+18     	; 0x2f80 <__addsf3x+0x9c>
    2f6e:	87 95       	ror	r24
    2f70:	77 95       	ror	r23
    2f72:	67 95       	ror	r22
    2f74:	b7 95       	ror	r27
    2f76:	f7 95       	ror	r31
    2f78:	9e 3f       	cpi	r25, 0xFE	; 254
    2f7a:	08 f0       	brcs	.+2      	; 0x2f7e <__addsf3x+0x9a>
    2f7c:	b0 cf       	rjmp	.-160    	; 0x2ede <__addsf3+0x28>
    2f7e:	93 95       	inc	r25
    2f80:	88 0f       	add	r24, r24
    2f82:	08 f0       	brcs	.+2      	; 0x2f86 <__addsf3x+0xa2>
    2f84:	99 27       	eor	r25, r25
    2f86:	ee 0f       	add	r30, r30
    2f88:	97 95       	ror	r25
    2f8a:	87 95       	ror	r24
    2f8c:	08 95       	ret

00002f8e <__cmpsf2>:
    2f8e:	0e 94 b1 18 	call	0x3162	; 0x3162 <__fp_cmp>
    2f92:	08 f4       	brcc	.+2      	; 0x2f96 <__cmpsf2+0x8>
    2f94:	81 e0       	ldi	r24, 0x01	; 1
    2f96:	08 95       	ret

00002f98 <__divsf3>:
    2f98:	0e 94 e0 17 	call	0x2fc0	; 0x2fc0 <__divsf3x>
    2f9c:	0c 94 ec 18 	jmp	0x31d8	; 0x31d8 <__fp_round>
    2fa0:	0e 94 e5 18 	call	0x31ca	; 0x31ca <__fp_pscB>
    2fa4:	58 f0       	brcs	.+22     	; 0x2fbc <__divsf3+0x24>
    2fa6:	0e 94 de 18 	call	0x31bc	; 0x31bc <__fp_pscA>
    2faa:	40 f0       	brcs	.+16     	; 0x2fbc <__divsf3+0x24>
    2fac:	29 f4       	brne	.+10     	; 0x2fb8 <__divsf3+0x20>
    2fae:	5f 3f       	cpi	r21, 0xFF	; 255
    2fb0:	29 f0       	breq	.+10     	; 0x2fbc <__divsf3+0x24>
    2fb2:	0c 94 d5 18 	jmp	0x31aa	; 0x31aa <__fp_inf>
    2fb6:	51 11       	cpse	r21, r1
    2fb8:	0c 94 20 19 	jmp	0x3240	; 0x3240 <__fp_szero>
    2fbc:	0c 94 db 18 	jmp	0x31b6	; 0x31b6 <__fp_nan>

00002fc0 <__divsf3x>:
    2fc0:	0e 94 fd 18 	call	0x31fa	; 0x31fa <__fp_split3>
    2fc4:	68 f3       	brcs	.-38     	; 0x2fa0 <__divsf3+0x8>

00002fc6 <__divsf3_pse>:
    2fc6:	99 23       	and	r25, r25
    2fc8:	b1 f3       	breq	.-20     	; 0x2fb6 <__divsf3+0x1e>
    2fca:	55 23       	and	r21, r21
    2fcc:	91 f3       	breq	.-28     	; 0x2fb2 <__divsf3+0x1a>
    2fce:	95 1b       	sub	r25, r21
    2fd0:	55 0b       	sbc	r21, r21
    2fd2:	bb 27       	eor	r27, r27
    2fd4:	aa 27       	eor	r26, r26
    2fd6:	62 17       	cp	r22, r18
    2fd8:	73 07       	cpc	r23, r19
    2fda:	84 07       	cpc	r24, r20
    2fdc:	38 f0       	brcs	.+14     	; 0x2fec <__divsf3_pse+0x26>
    2fde:	9f 5f       	subi	r25, 0xFF	; 255
    2fe0:	5f 4f       	sbci	r21, 0xFF	; 255
    2fe2:	22 0f       	add	r18, r18
    2fe4:	33 1f       	adc	r19, r19
    2fe6:	44 1f       	adc	r20, r20
    2fe8:	aa 1f       	adc	r26, r26
    2fea:	a9 f3       	breq	.-22     	; 0x2fd6 <__divsf3_pse+0x10>
    2fec:	35 d0       	rcall	.+106    	; 0x3058 <__divsf3_pse+0x92>
    2fee:	0e 2e       	mov	r0, r30
    2ff0:	3a f0       	brmi	.+14     	; 0x3000 <__divsf3_pse+0x3a>
    2ff2:	e0 e8       	ldi	r30, 0x80	; 128
    2ff4:	32 d0       	rcall	.+100    	; 0x305a <__divsf3_pse+0x94>
    2ff6:	91 50       	subi	r25, 0x01	; 1
    2ff8:	50 40       	sbci	r21, 0x00	; 0
    2ffa:	e6 95       	lsr	r30
    2ffc:	00 1c       	adc	r0, r0
    2ffe:	ca f7       	brpl	.-14     	; 0x2ff2 <__divsf3_pse+0x2c>
    3000:	2b d0       	rcall	.+86     	; 0x3058 <__divsf3_pse+0x92>
    3002:	fe 2f       	mov	r31, r30
    3004:	29 d0       	rcall	.+82     	; 0x3058 <__divsf3_pse+0x92>
    3006:	66 0f       	add	r22, r22
    3008:	77 1f       	adc	r23, r23
    300a:	88 1f       	adc	r24, r24
    300c:	bb 1f       	adc	r27, r27
    300e:	26 17       	cp	r18, r22
    3010:	37 07       	cpc	r19, r23
    3012:	48 07       	cpc	r20, r24
    3014:	ab 07       	cpc	r26, r27
    3016:	b0 e8       	ldi	r27, 0x80	; 128
    3018:	09 f0       	breq	.+2      	; 0x301c <__divsf3_pse+0x56>
    301a:	bb 0b       	sbc	r27, r27
    301c:	80 2d       	mov	r24, r0
    301e:	bf 01       	movw	r22, r30
    3020:	ff 27       	eor	r31, r31
    3022:	93 58       	subi	r25, 0x83	; 131
    3024:	5f 4f       	sbci	r21, 0xFF	; 255
    3026:	3a f0       	brmi	.+14     	; 0x3036 <__divsf3_pse+0x70>
    3028:	9e 3f       	cpi	r25, 0xFE	; 254
    302a:	51 05       	cpc	r21, r1
    302c:	78 f0       	brcs	.+30     	; 0x304c <__divsf3_pse+0x86>
    302e:	0c 94 d5 18 	jmp	0x31aa	; 0x31aa <__fp_inf>
    3032:	0c 94 20 19 	jmp	0x3240	; 0x3240 <__fp_szero>
    3036:	5f 3f       	cpi	r21, 0xFF	; 255
    3038:	e4 f3       	brlt	.-8      	; 0x3032 <__divsf3_pse+0x6c>
    303a:	98 3e       	cpi	r25, 0xE8	; 232
    303c:	d4 f3       	brlt	.-12     	; 0x3032 <__divsf3_pse+0x6c>
    303e:	86 95       	lsr	r24
    3040:	77 95       	ror	r23
    3042:	67 95       	ror	r22
    3044:	b7 95       	ror	r27
    3046:	f7 95       	ror	r31
    3048:	9f 5f       	subi	r25, 0xFF	; 255
    304a:	c9 f7       	brne	.-14     	; 0x303e <__divsf3_pse+0x78>
    304c:	88 0f       	add	r24, r24
    304e:	91 1d       	adc	r25, r1
    3050:	96 95       	lsr	r25
    3052:	87 95       	ror	r24
    3054:	97 f9       	bld	r25, 7
    3056:	08 95       	ret
    3058:	e1 e0       	ldi	r30, 0x01	; 1
    305a:	66 0f       	add	r22, r22
    305c:	77 1f       	adc	r23, r23
    305e:	88 1f       	adc	r24, r24
    3060:	bb 1f       	adc	r27, r27
    3062:	62 17       	cp	r22, r18
    3064:	73 07       	cpc	r23, r19
    3066:	84 07       	cpc	r24, r20
    3068:	ba 07       	cpc	r27, r26
    306a:	20 f0       	brcs	.+8      	; 0x3074 <__divsf3_pse+0xae>
    306c:	62 1b       	sub	r22, r18
    306e:	73 0b       	sbc	r23, r19
    3070:	84 0b       	sbc	r24, r20
    3072:	ba 0b       	sbc	r27, r26
    3074:	ee 1f       	adc	r30, r30
    3076:	88 f7       	brcc	.-30     	; 0x305a <__divsf3_pse+0x94>
    3078:	e0 95       	com	r30
    307a:	08 95       	ret

0000307c <__fixsfsi>:
    307c:	0e 94 45 18 	call	0x308a	; 0x308a <__fixunssfsi>
    3080:	68 94       	set
    3082:	b1 11       	cpse	r27, r1
    3084:	0c 94 20 19 	jmp	0x3240	; 0x3240 <__fp_szero>
    3088:	08 95       	ret

0000308a <__fixunssfsi>:
    308a:	0e 94 05 19 	call	0x320a	; 0x320a <__fp_splitA>
    308e:	88 f0       	brcs	.+34     	; 0x30b2 <__fixunssfsi+0x28>
    3090:	9f 57       	subi	r25, 0x7F	; 127
    3092:	98 f0       	brcs	.+38     	; 0x30ba <__fixunssfsi+0x30>
    3094:	b9 2f       	mov	r27, r25
    3096:	99 27       	eor	r25, r25
    3098:	b7 51       	subi	r27, 0x17	; 23
    309a:	b0 f0       	brcs	.+44     	; 0x30c8 <__fixunssfsi+0x3e>
    309c:	e1 f0       	breq	.+56     	; 0x30d6 <__fixunssfsi+0x4c>
    309e:	66 0f       	add	r22, r22
    30a0:	77 1f       	adc	r23, r23
    30a2:	88 1f       	adc	r24, r24
    30a4:	99 1f       	adc	r25, r25
    30a6:	1a f0       	brmi	.+6      	; 0x30ae <__fixunssfsi+0x24>
    30a8:	ba 95       	dec	r27
    30aa:	c9 f7       	brne	.-14     	; 0x309e <__fixunssfsi+0x14>
    30ac:	14 c0       	rjmp	.+40     	; 0x30d6 <__fixunssfsi+0x4c>
    30ae:	b1 30       	cpi	r27, 0x01	; 1
    30b0:	91 f0       	breq	.+36     	; 0x30d6 <__fixunssfsi+0x4c>
    30b2:	0e 94 1f 19 	call	0x323e	; 0x323e <__fp_zero>
    30b6:	b1 e0       	ldi	r27, 0x01	; 1
    30b8:	08 95       	ret
    30ba:	0c 94 1f 19 	jmp	0x323e	; 0x323e <__fp_zero>
    30be:	67 2f       	mov	r22, r23
    30c0:	78 2f       	mov	r23, r24
    30c2:	88 27       	eor	r24, r24
    30c4:	b8 5f       	subi	r27, 0xF8	; 248
    30c6:	39 f0       	breq	.+14     	; 0x30d6 <__fixunssfsi+0x4c>
    30c8:	b9 3f       	cpi	r27, 0xF9	; 249
    30ca:	cc f3       	brlt	.-14     	; 0x30be <__fixunssfsi+0x34>
    30cc:	86 95       	lsr	r24
    30ce:	77 95       	ror	r23
    30d0:	67 95       	ror	r22
    30d2:	b3 95       	inc	r27
    30d4:	d9 f7       	brne	.-10     	; 0x30cc <__fixunssfsi+0x42>
    30d6:	3e f4       	brtc	.+14     	; 0x30e6 <__fixunssfsi+0x5c>
    30d8:	90 95       	com	r25
    30da:	80 95       	com	r24
    30dc:	70 95       	com	r23
    30de:	61 95       	neg	r22
    30e0:	7f 4f       	sbci	r23, 0xFF	; 255
    30e2:	8f 4f       	sbci	r24, 0xFF	; 255
    30e4:	9f 4f       	sbci	r25, 0xFF	; 255
    30e6:	08 95       	ret

000030e8 <__floatunsisf>:
    30e8:	e8 94       	clt
    30ea:	09 c0       	rjmp	.+18     	; 0x30fe <__floatsisf+0x12>

000030ec <__floatsisf>:
    30ec:	97 fb       	bst	r25, 7
    30ee:	3e f4       	brtc	.+14     	; 0x30fe <__floatsisf+0x12>
    30f0:	90 95       	com	r25
    30f2:	80 95       	com	r24
    30f4:	70 95       	com	r23
    30f6:	61 95       	neg	r22
    30f8:	7f 4f       	sbci	r23, 0xFF	; 255
    30fa:	8f 4f       	sbci	r24, 0xFF	; 255
    30fc:	9f 4f       	sbci	r25, 0xFF	; 255
    30fe:	99 23       	and	r25, r25
    3100:	a9 f0       	breq	.+42     	; 0x312c <__floatsisf+0x40>
    3102:	f9 2f       	mov	r31, r25
    3104:	96 e9       	ldi	r25, 0x96	; 150
    3106:	bb 27       	eor	r27, r27
    3108:	93 95       	inc	r25
    310a:	f6 95       	lsr	r31
    310c:	87 95       	ror	r24
    310e:	77 95       	ror	r23
    3110:	67 95       	ror	r22
    3112:	b7 95       	ror	r27
    3114:	f1 11       	cpse	r31, r1
    3116:	f8 cf       	rjmp	.-16     	; 0x3108 <__floatsisf+0x1c>
    3118:	fa f4       	brpl	.+62     	; 0x3158 <__floatsisf+0x6c>
    311a:	bb 0f       	add	r27, r27
    311c:	11 f4       	brne	.+4      	; 0x3122 <__floatsisf+0x36>
    311e:	60 ff       	sbrs	r22, 0
    3120:	1b c0       	rjmp	.+54     	; 0x3158 <__floatsisf+0x6c>
    3122:	6f 5f       	subi	r22, 0xFF	; 255
    3124:	7f 4f       	sbci	r23, 0xFF	; 255
    3126:	8f 4f       	sbci	r24, 0xFF	; 255
    3128:	9f 4f       	sbci	r25, 0xFF	; 255
    312a:	16 c0       	rjmp	.+44     	; 0x3158 <__floatsisf+0x6c>
    312c:	88 23       	and	r24, r24
    312e:	11 f0       	breq	.+4      	; 0x3134 <__floatsisf+0x48>
    3130:	96 e9       	ldi	r25, 0x96	; 150
    3132:	11 c0       	rjmp	.+34     	; 0x3156 <__floatsisf+0x6a>
    3134:	77 23       	and	r23, r23
    3136:	21 f0       	breq	.+8      	; 0x3140 <__floatsisf+0x54>
    3138:	9e e8       	ldi	r25, 0x8E	; 142
    313a:	87 2f       	mov	r24, r23
    313c:	76 2f       	mov	r23, r22
    313e:	05 c0       	rjmp	.+10     	; 0x314a <__floatsisf+0x5e>
    3140:	66 23       	and	r22, r22
    3142:	71 f0       	breq	.+28     	; 0x3160 <__floatsisf+0x74>
    3144:	96 e8       	ldi	r25, 0x86	; 134
    3146:	86 2f       	mov	r24, r22
    3148:	70 e0       	ldi	r23, 0x00	; 0
    314a:	60 e0       	ldi	r22, 0x00	; 0
    314c:	2a f0       	brmi	.+10     	; 0x3158 <__floatsisf+0x6c>
    314e:	9a 95       	dec	r25
    3150:	66 0f       	add	r22, r22
    3152:	77 1f       	adc	r23, r23
    3154:	88 1f       	adc	r24, r24
    3156:	da f7       	brpl	.-10     	; 0x314e <__floatsisf+0x62>
    3158:	88 0f       	add	r24, r24
    315a:	96 95       	lsr	r25
    315c:	87 95       	ror	r24
    315e:	97 f9       	bld	r25, 7
    3160:	08 95       	ret

00003162 <__fp_cmp>:
    3162:	99 0f       	add	r25, r25
    3164:	00 08       	sbc	r0, r0
    3166:	55 0f       	add	r21, r21
    3168:	aa 0b       	sbc	r26, r26
    316a:	e0 e8       	ldi	r30, 0x80	; 128
    316c:	fe ef       	ldi	r31, 0xFE	; 254
    316e:	16 16       	cp	r1, r22
    3170:	17 06       	cpc	r1, r23
    3172:	e8 07       	cpc	r30, r24
    3174:	f9 07       	cpc	r31, r25
    3176:	c0 f0       	brcs	.+48     	; 0x31a8 <__fp_cmp+0x46>
    3178:	12 16       	cp	r1, r18
    317a:	13 06       	cpc	r1, r19
    317c:	e4 07       	cpc	r30, r20
    317e:	f5 07       	cpc	r31, r21
    3180:	98 f0       	brcs	.+38     	; 0x31a8 <__fp_cmp+0x46>
    3182:	62 1b       	sub	r22, r18
    3184:	73 0b       	sbc	r23, r19
    3186:	84 0b       	sbc	r24, r20
    3188:	95 0b       	sbc	r25, r21
    318a:	39 f4       	brne	.+14     	; 0x319a <__fp_cmp+0x38>
    318c:	0a 26       	eor	r0, r26
    318e:	61 f0       	breq	.+24     	; 0x31a8 <__fp_cmp+0x46>
    3190:	23 2b       	or	r18, r19
    3192:	24 2b       	or	r18, r20
    3194:	25 2b       	or	r18, r21
    3196:	21 f4       	brne	.+8      	; 0x31a0 <__fp_cmp+0x3e>
    3198:	08 95       	ret
    319a:	0a 26       	eor	r0, r26
    319c:	09 f4       	brne	.+2      	; 0x31a0 <__fp_cmp+0x3e>
    319e:	a1 40       	sbci	r26, 0x01	; 1
    31a0:	a6 95       	lsr	r26
    31a2:	8f ef       	ldi	r24, 0xFF	; 255
    31a4:	81 1d       	adc	r24, r1
    31a6:	81 1d       	adc	r24, r1
    31a8:	08 95       	ret

000031aa <__fp_inf>:
    31aa:	97 f9       	bld	r25, 7
    31ac:	9f 67       	ori	r25, 0x7F	; 127
    31ae:	80 e8       	ldi	r24, 0x80	; 128
    31b0:	70 e0       	ldi	r23, 0x00	; 0
    31b2:	60 e0       	ldi	r22, 0x00	; 0
    31b4:	08 95       	ret

000031b6 <__fp_nan>:
    31b6:	9f ef       	ldi	r25, 0xFF	; 255
    31b8:	80 ec       	ldi	r24, 0xC0	; 192
    31ba:	08 95       	ret

000031bc <__fp_pscA>:
    31bc:	00 24       	eor	r0, r0
    31be:	0a 94       	dec	r0
    31c0:	16 16       	cp	r1, r22
    31c2:	17 06       	cpc	r1, r23
    31c4:	18 06       	cpc	r1, r24
    31c6:	09 06       	cpc	r0, r25
    31c8:	08 95       	ret

000031ca <__fp_pscB>:
    31ca:	00 24       	eor	r0, r0
    31cc:	0a 94       	dec	r0
    31ce:	12 16       	cp	r1, r18
    31d0:	13 06       	cpc	r1, r19
    31d2:	14 06       	cpc	r1, r20
    31d4:	05 06       	cpc	r0, r21
    31d6:	08 95       	ret

000031d8 <__fp_round>:
    31d8:	09 2e       	mov	r0, r25
    31da:	03 94       	inc	r0
    31dc:	00 0c       	add	r0, r0
    31de:	11 f4       	brne	.+4      	; 0x31e4 <__fp_round+0xc>
    31e0:	88 23       	and	r24, r24
    31e2:	52 f0       	brmi	.+20     	; 0x31f8 <__fp_round+0x20>
    31e4:	bb 0f       	add	r27, r27
    31e6:	40 f4       	brcc	.+16     	; 0x31f8 <__fp_round+0x20>
    31e8:	bf 2b       	or	r27, r31
    31ea:	11 f4       	brne	.+4      	; 0x31f0 <__fp_round+0x18>
    31ec:	60 ff       	sbrs	r22, 0
    31ee:	04 c0       	rjmp	.+8      	; 0x31f8 <__fp_round+0x20>
    31f0:	6f 5f       	subi	r22, 0xFF	; 255
    31f2:	7f 4f       	sbci	r23, 0xFF	; 255
    31f4:	8f 4f       	sbci	r24, 0xFF	; 255
    31f6:	9f 4f       	sbci	r25, 0xFF	; 255
    31f8:	08 95       	ret

000031fa <__fp_split3>:
    31fa:	57 fd       	sbrc	r21, 7
    31fc:	90 58       	subi	r25, 0x80	; 128
    31fe:	44 0f       	add	r20, r20
    3200:	55 1f       	adc	r21, r21
    3202:	59 f0       	breq	.+22     	; 0x321a <__fp_splitA+0x10>
    3204:	5f 3f       	cpi	r21, 0xFF	; 255
    3206:	71 f0       	breq	.+28     	; 0x3224 <__fp_splitA+0x1a>
    3208:	47 95       	ror	r20

0000320a <__fp_splitA>:
    320a:	88 0f       	add	r24, r24
    320c:	97 fb       	bst	r25, 7
    320e:	99 1f       	adc	r25, r25
    3210:	61 f0       	breq	.+24     	; 0x322a <__fp_splitA+0x20>
    3212:	9f 3f       	cpi	r25, 0xFF	; 255
    3214:	79 f0       	breq	.+30     	; 0x3234 <__fp_splitA+0x2a>
    3216:	87 95       	ror	r24
    3218:	08 95       	ret
    321a:	12 16       	cp	r1, r18
    321c:	13 06       	cpc	r1, r19
    321e:	14 06       	cpc	r1, r20
    3220:	55 1f       	adc	r21, r21
    3222:	f2 cf       	rjmp	.-28     	; 0x3208 <__fp_split3+0xe>
    3224:	46 95       	lsr	r20
    3226:	f1 df       	rcall	.-30     	; 0x320a <__fp_splitA>
    3228:	08 c0       	rjmp	.+16     	; 0x323a <__fp_splitA+0x30>
    322a:	16 16       	cp	r1, r22
    322c:	17 06       	cpc	r1, r23
    322e:	18 06       	cpc	r1, r24
    3230:	99 1f       	adc	r25, r25
    3232:	f1 cf       	rjmp	.-30     	; 0x3216 <__fp_splitA+0xc>
    3234:	86 95       	lsr	r24
    3236:	71 05       	cpc	r23, r1
    3238:	61 05       	cpc	r22, r1
    323a:	08 94       	sec
    323c:	08 95       	ret

0000323e <__fp_zero>:
    323e:	e8 94       	clt

00003240 <__fp_szero>:
    3240:	bb 27       	eor	r27, r27
    3242:	66 27       	eor	r22, r22
    3244:	77 27       	eor	r23, r23
    3246:	cb 01       	movw	r24, r22
    3248:	97 f9       	bld	r25, 7
    324a:	08 95       	ret

0000324c <__mulsf3>:
    324c:	0e 94 39 19 	call	0x3272	; 0x3272 <__mulsf3x>
    3250:	0c 94 ec 18 	jmp	0x31d8	; 0x31d8 <__fp_round>
    3254:	0e 94 de 18 	call	0x31bc	; 0x31bc <__fp_pscA>
    3258:	38 f0       	brcs	.+14     	; 0x3268 <__mulsf3+0x1c>
    325a:	0e 94 e5 18 	call	0x31ca	; 0x31ca <__fp_pscB>
    325e:	20 f0       	brcs	.+8      	; 0x3268 <__mulsf3+0x1c>
    3260:	95 23       	and	r25, r21
    3262:	11 f0       	breq	.+4      	; 0x3268 <__mulsf3+0x1c>
    3264:	0c 94 d5 18 	jmp	0x31aa	; 0x31aa <__fp_inf>
    3268:	0c 94 db 18 	jmp	0x31b6	; 0x31b6 <__fp_nan>
    326c:	11 24       	eor	r1, r1
    326e:	0c 94 20 19 	jmp	0x3240	; 0x3240 <__fp_szero>

00003272 <__mulsf3x>:
    3272:	0e 94 fd 18 	call	0x31fa	; 0x31fa <__fp_split3>
    3276:	70 f3       	brcs	.-36     	; 0x3254 <__mulsf3+0x8>

00003278 <__mulsf3_pse>:
    3278:	95 9f       	mul	r25, r21
    327a:	c1 f3       	breq	.-16     	; 0x326c <__mulsf3+0x20>
    327c:	95 0f       	add	r25, r21
    327e:	50 e0       	ldi	r21, 0x00	; 0
    3280:	55 1f       	adc	r21, r21
    3282:	62 9f       	mul	r22, r18
    3284:	f0 01       	movw	r30, r0
    3286:	72 9f       	mul	r23, r18
    3288:	bb 27       	eor	r27, r27
    328a:	f0 0d       	add	r31, r0
    328c:	b1 1d       	adc	r27, r1
    328e:	63 9f       	mul	r22, r19
    3290:	aa 27       	eor	r26, r26
    3292:	f0 0d       	add	r31, r0
    3294:	b1 1d       	adc	r27, r1
    3296:	aa 1f       	adc	r26, r26
    3298:	64 9f       	mul	r22, r20
    329a:	66 27       	eor	r22, r22
    329c:	b0 0d       	add	r27, r0
    329e:	a1 1d       	adc	r26, r1
    32a0:	66 1f       	adc	r22, r22
    32a2:	82 9f       	mul	r24, r18
    32a4:	22 27       	eor	r18, r18
    32a6:	b0 0d       	add	r27, r0
    32a8:	a1 1d       	adc	r26, r1
    32aa:	62 1f       	adc	r22, r18
    32ac:	73 9f       	mul	r23, r19
    32ae:	b0 0d       	add	r27, r0
    32b0:	a1 1d       	adc	r26, r1
    32b2:	62 1f       	adc	r22, r18
    32b4:	83 9f       	mul	r24, r19
    32b6:	a0 0d       	add	r26, r0
    32b8:	61 1d       	adc	r22, r1
    32ba:	22 1f       	adc	r18, r18
    32bc:	74 9f       	mul	r23, r20
    32be:	33 27       	eor	r19, r19
    32c0:	a0 0d       	add	r26, r0
    32c2:	61 1d       	adc	r22, r1
    32c4:	23 1f       	adc	r18, r19
    32c6:	84 9f       	mul	r24, r20
    32c8:	60 0d       	add	r22, r0
    32ca:	21 1d       	adc	r18, r1
    32cc:	82 2f       	mov	r24, r18
    32ce:	76 2f       	mov	r23, r22
    32d0:	6a 2f       	mov	r22, r26
    32d2:	11 24       	eor	r1, r1
    32d4:	9f 57       	subi	r25, 0x7F	; 127
    32d6:	50 40       	sbci	r21, 0x00	; 0
    32d8:	9a f0       	brmi	.+38     	; 0x3300 <__mulsf3_pse+0x88>
    32da:	f1 f0       	breq	.+60     	; 0x3318 <__mulsf3_pse+0xa0>
    32dc:	88 23       	and	r24, r24
    32de:	4a f0       	brmi	.+18     	; 0x32f2 <__mulsf3_pse+0x7a>
    32e0:	ee 0f       	add	r30, r30
    32e2:	ff 1f       	adc	r31, r31
    32e4:	bb 1f       	adc	r27, r27
    32e6:	66 1f       	adc	r22, r22
    32e8:	77 1f       	adc	r23, r23
    32ea:	88 1f       	adc	r24, r24
    32ec:	91 50       	subi	r25, 0x01	; 1
    32ee:	50 40       	sbci	r21, 0x00	; 0
    32f0:	a9 f7       	brne	.-22     	; 0x32dc <__mulsf3_pse+0x64>
    32f2:	9e 3f       	cpi	r25, 0xFE	; 254
    32f4:	51 05       	cpc	r21, r1
    32f6:	80 f0       	brcs	.+32     	; 0x3318 <__mulsf3_pse+0xa0>
    32f8:	0c 94 d5 18 	jmp	0x31aa	; 0x31aa <__fp_inf>
    32fc:	0c 94 20 19 	jmp	0x3240	; 0x3240 <__fp_szero>
    3300:	5f 3f       	cpi	r21, 0xFF	; 255
    3302:	e4 f3       	brlt	.-8      	; 0x32fc <__mulsf3_pse+0x84>
    3304:	98 3e       	cpi	r25, 0xE8	; 232
    3306:	d4 f3       	brlt	.-12     	; 0x32fc <__mulsf3_pse+0x84>
    3308:	86 95       	lsr	r24
    330a:	77 95       	ror	r23
    330c:	67 95       	ror	r22
    330e:	b7 95       	ror	r27
    3310:	f7 95       	ror	r31
    3312:	e7 95       	ror	r30
    3314:	9f 5f       	subi	r25, 0xFF	; 255
    3316:	c1 f7       	brne	.-16     	; 0x3308 <__mulsf3_pse+0x90>
    3318:	fe 2b       	or	r31, r30
    331a:	88 0f       	add	r24, r24
    331c:	91 1d       	adc	r25, r1
    331e:	96 95       	lsr	r25
    3320:	87 95       	ror	r24
    3322:	97 f9       	bld	r25, 7
    3324:	08 95       	ret

00003326 <__udivmodsi4>:
    3326:	a1 e2       	ldi	r26, 0x21	; 33
    3328:	1a 2e       	mov	r1, r26
    332a:	aa 1b       	sub	r26, r26
    332c:	bb 1b       	sub	r27, r27
    332e:	fd 01       	movw	r30, r26
    3330:	0d c0       	rjmp	.+26     	; 0x334c <__udivmodsi4_ep>

00003332 <__udivmodsi4_loop>:
    3332:	aa 1f       	adc	r26, r26
    3334:	bb 1f       	adc	r27, r27
    3336:	ee 1f       	adc	r30, r30
    3338:	ff 1f       	adc	r31, r31
    333a:	a2 17       	cp	r26, r18
    333c:	b3 07       	cpc	r27, r19
    333e:	e4 07       	cpc	r30, r20
    3340:	f5 07       	cpc	r31, r21
    3342:	20 f0       	brcs	.+8      	; 0x334c <__udivmodsi4_ep>
    3344:	a2 1b       	sub	r26, r18
    3346:	b3 0b       	sbc	r27, r19
    3348:	e4 0b       	sbc	r30, r20
    334a:	f5 0b       	sbc	r31, r21

0000334c <__udivmodsi4_ep>:
    334c:	66 1f       	adc	r22, r22
    334e:	77 1f       	adc	r23, r23
    3350:	88 1f       	adc	r24, r24
    3352:	99 1f       	adc	r25, r25
    3354:	1a 94       	dec	r1
    3356:	69 f7       	brne	.-38     	; 0x3332 <__udivmodsi4_loop>
    3358:	60 95       	com	r22
    335a:	70 95       	com	r23
    335c:	80 95       	com	r24
    335e:	90 95       	com	r25
    3360:	9b 01       	movw	r18, r22
    3362:	ac 01       	movw	r20, r24
    3364:	bd 01       	movw	r22, r26
    3366:	cf 01       	movw	r24, r30
    3368:	08 95       	ret

0000336a <__umulhisi3>:
    336a:	a2 9f       	mul	r26, r18
    336c:	b0 01       	movw	r22, r0
    336e:	b3 9f       	mul	r27, r19
    3370:	c0 01       	movw	r24, r0
    3372:	a3 9f       	mul	r26, r19
    3374:	70 0d       	add	r23, r0
    3376:	81 1d       	adc	r24, r1
    3378:	11 24       	eor	r1, r1
    337a:	91 1d       	adc	r25, r1
    337c:	b2 9f       	mul	r27, r18
    337e:	70 0d       	add	r23, r0
    3380:	81 1d       	adc	r24, r1
    3382:	11 24       	eor	r1, r1
    3384:	91 1d       	adc	r25, r1
    3386:	08 95       	ret

00003388 <__muluhisi3>:
    3388:	0e 94 b5 19 	call	0x336a	; 0x336a <__umulhisi3>
    338c:	a5 9f       	mul	r26, r21
    338e:	90 0d       	add	r25, r0
    3390:	b4 9f       	mul	r27, r20
    3392:	90 0d       	add	r25, r0
    3394:	a4 9f       	mul	r26, r20
    3396:	80 0d       	add	r24, r0
    3398:	91 1d       	adc	r25, r1
    339a:	11 24       	eor	r1, r1
    339c:	08 95       	ret

0000339e <__mulshisi3>:
    339e:	b7 ff       	sbrs	r27, 7
    33a0:	0c 94 c4 19 	jmp	0x3388	; 0x3388 <__muluhisi3>

000033a4 <__mulohisi3>:
    33a4:	0e 94 c4 19 	call	0x3388	; 0x3388 <__muluhisi3>
    33a8:	82 1b       	sub	r24, r18
    33aa:	93 0b       	sbc	r25, r19
    33ac:	08 95       	ret

000033ae <__tablejump2__>:
    33ae:	ee 0f       	add	r30, r30
    33b0:	ff 1f       	adc	r31, r31
    33b2:	05 90       	lpm	r0, Z+
    33b4:	f4 91       	lpm	r31, Z
    33b6:	e0 2d       	mov	r30, r0
    33b8:	09 94       	ijmp

000033ba <malloc>:
    33ba:	0f 93       	push	r16
    33bc:	1f 93       	push	r17
    33be:	cf 93       	push	r28
    33c0:	df 93       	push	r29
    33c2:	82 30       	cpi	r24, 0x02	; 2
    33c4:	91 05       	cpc	r25, r1
    33c6:	10 f4       	brcc	.+4      	; 0x33cc <malloc+0x12>
    33c8:	82 e0       	ldi	r24, 0x02	; 2
    33ca:	90 e0       	ldi	r25, 0x00	; 0
    33cc:	e0 91 3d 05 	lds	r30, 0x053D	; 0x80053d <__flp>
    33d0:	f0 91 3e 05 	lds	r31, 0x053E	; 0x80053e <__flp+0x1>
    33d4:	20 e0       	ldi	r18, 0x00	; 0
    33d6:	30 e0       	ldi	r19, 0x00	; 0
    33d8:	a0 e0       	ldi	r26, 0x00	; 0
    33da:	b0 e0       	ldi	r27, 0x00	; 0
    33dc:	30 97       	sbiw	r30, 0x00	; 0
    33de:	19 f1       	breq	.+70     	; 0x3426 <malloc+0x6c>
    33e0:	40 81       	ld	r20, Z
    33e2:	51 81       	ldd	r21, Z+1	; 0x01
    33e4:	02 81       	ldd	r16, Z+2	; 0x02
    33e6:	13 81       	ldd	r17, Z+3	; 0x03
    33e8:	48 17       	cp	r20, r24
    33ea:	59 07       	cpc	r21, r25
    33ec:	c8 f0       	brcs	.+50     	; 0x3420 <malloc+0x66>
    33ee:	84 17       	cp	r24, r20
    33f0:	95 07       	cpc	r25, r21
    33f2:	69 f4       	brne	.+26     	; 0x340e <malloc+0x54>
    33f4:	10 97       	sbiw	r26, 0x00	; 0
    33f6:	31 f0       	breq	.+12     	; 0x3404 <malloc+0x4a>
    33f8:	12 96       	adiw	r26, 0x02	; 2
    33fa:	0c 93       	st	X, r16
    33fc:	12 97       	sbiw	r26, 0x02	; 2
    33fe:	13 96       	adiw	r26, 0x03	; 3
    3400:	1c 93       	st	X, r17
    3402:	27 c0       	rjmp	.+78     	; 0x3452 <malloc+0x98>
    3404:	00 93 3d 05 	sts	0x053D, r16	; 0x80053d <__flp>
    3408:	10 93 3e 05 	sts	0x053E, r17	; 0x80053e <__flp+0x1>
    340c:	22 c0       	rjmp	.+68     	; 0x3452 <malloc+0x98>
    340e:	21 15       	cp	r18, r1
    3410:	31 05       	cpc	r19, r1
    3412:	19 f0       	breq	.+6      	; 0x341a <malloc+0x60>
    3414:	42 17       	cp	r20, r18
    3416:	53 07       	cpc	r21, r19
    3418:	18 f4       	brcc	.+6      	; 0x3420 <malloc+0x66>
    341a:	9a 01       	movw	r18, r20
    341c:	bd 01       	movw	r22, r26
    341e:	ef 01       	movw	r28, r30
    3420:	df 01       	movw	r26, r30
    3422:	f8 01       	movw	r30, r16
    3424:	db cf       	rjmp	.-74     	; 0x33dc <malloc+0x22>
    3426:	21 15       	cp	r18, r1
    3428:	31 05       	cpc	r19, r1
    342a:	f9 f0       	breq	.+62     	; 0x346a <malloc+0xb0>
    342c:	28 1b       	sub	r18, r24
    342e:	39 0b       	sbc	r19, r25
    3430:	24 30       	cpi	r18, 0x04	; 4
    3432:	31 05       	cpc	r19, r1
    3434:	80 f4       	brcc	.+32     	; 0x3456 <malloc+0x9c>
    3436:	8a 81       	ldd	r24, Y+2	; 0x02
    3438:	9b 81       	ldd	r25, Y+3	; 0x03
    343a:	61 15       	cp	r22, r1
    343c:	71 05       	cpc	r23, r1
    343e:	21 f0       	breq	.+8      	; 0x3448 <malloc+0x8e>
    3440:	fb 01       	movw	r30, r22
    3442:	93 83       	std	Z+3, r25	; 0x03
    3444:	82 83       	std	Z+2, r24	; 0x02
    3446:	04 c0       	rjmp	.+8      	; 0x3450 <malloc+0x96>
    3448:	90 93 3e 05 	sts	0x053E, r25	; 0x80053e <__flp+0x1>
    344c:	80 93 3d 05 	sts	0x053D, r24	; 0x80053d <__flp>
    3450:	fe 01       	movw	r30, r28
    3452:	32 96       	adiw	r30, 0x02	; 2
    3454:	44 c0       	rjmp	.+136    	; 0x34de <malloc+0x124>
    3456:	fe 01       	movw	r30, r28
    3458:	e2 0f       	add	r30, r18
    345a:	f3 1f       	adc	r31, r19
    345c:	81 93       	st	Z+, r24
    345e:	91 93       	st	Z+, r25
    3460:	22 50       	subi	r18, 0x02	; 2
    3462:	31 09       	sbc	r19, r1
    3464:	39 83       	std	Y+1, r19	; 0x01
    3466:	28 83       	st	Y, r18
    3468:	3a c0       	rjmp	.+116    	; 0x34de <malloc+0x124>
    346a:	20 91 3b 05 	lds	r18, 0x053B	; 0x80053b <__brkval>
    346e:	30 91 3c 05 	lds	r19, 0x053C	; 0x80053c <__brkval+0x1>
    3472:	23 2b       	or	r18, r19
    3474:	41 f4       	brne	.+16     	; 0x3486 <malloc+0xcc>
    3476:	20 91 02 01 	lds	r18, 0x0102	; 0x800102 <__malloc_heap_start>
    347a:	30 91 03 01 	lds	r19, 0x0103	; 0x800103 <__malloc_heap_start+0x1>
    347e:	30 93 3c 05 	sts	0x053C, r19	; 0x80053c <__brkval+0x1>
    3482:	20 93 3b 05 	sts	0x053B, r18	; 0x80053b <__brkval>
    3486:	20 91 00 01 	lds	r18, 0x0100	; 0x800100 <__data_start>
    348a:	30 91 01 01 	lds	r19, 0x0101	; 0x800101 <__data_start+0x1>
    348e:	21 15       	cp	r18, r1
    3490:	31 05       	cpc	r19, r1
    3492:	41 f4       	brne	.+16     	; 0x34a4 <malloc+0xea>
    3494:	2d b7       	in	r18, 0x3d	; 61
    3496:	3e b7       	in	r19, 0x3e	; 62
    3498:	40 91 04 01 	lds	r20, 0x0104	; 0x800104 <__malloc_margin>
    349c:	50 91 05 01 	lds	r21, 0x0105	; 0x800105 <__malloc_margin+0x1>
    34a0:	24 1b       	sub	r18, r20
    34a2:	35 0b       	sbc	r19, r21
    34a4:	e0 91 3b 05 	lds	r30, 0x053B	; 0x80053b <__brkval>
    34a8:	f0 91 3c 05 	lds	r31, 0x053C	; 0x80053c <__brkval+0x1>
    34ac:	e2 17       	cp	r30, r18
    34ae:	f3 07       	cpc	r31, r19
    34b0:	a0 f4       	brcc	.+40     	; 0x34da <malloc+0x120>
    34b2:	2e 1b       	sub	r18, r30
    34b4:	3f 0b       	sbc	r19, r31
    34b6:	28 17       	cp	r18, r24
    34b8:	39 07       	cpc	r19, r25
    34ba:	78 f0       	brcs	.+30     	; 0x34da <malloc+0x120>
    34bc:	ac 01       	movw	r20, r24
    34be:	4e 5f       	subi	r20, 0xFE	; 254
    34c0:	5f 4f       	sbci	r21, 0xFF	; 255
    34c2:	24 17       	cp	r18, r20
    34c4:	35 07       	cpc	r19, r21
    34c6:	48 f0       	brcs	.+18     	; 0x34da <malloc+0x120>
    34c8:	4e 0f       	add	r20, r30
    34ca:	5f 1f       	adc	r21, r31
    34cc:	50 93 3c 05 	sts	0x053C, r21	; 0x80053c <__brkval+0x1>
    34d0:	40 93 3b 05 	sts	0x053B, r20	; 0x80053b <__brkval>
    34d4:	81 93       	st	Z+, r24
    34d6:	91 93       	st	Z+, r25
    34d8:	02 c0       	rjmp	.+4      	; 0x34de <malloc+0x124>
    34da:	e0 e0       	ldi	r30, 0x00	; 0
    34dc:	f0 e0       	ldi	r31, 0x00	; 0
    34de:	cf 01       	movw	r24, r30
    34e0:	df 91       	pop	r29
    34e2:	cf 91       	pop	r28
    34e4:	1f 91       	pop	r17
    34e6:	0f 91       	pop	r16
    34e8:	08 95       	ret

000034ea <free>:
    34ea:	cf 93       	push	r28
    34ec:	df 93       	push	r29
    34ee:	00 97       	sbiw	r24, 0x00	; 0
    34f0:	09 f4       	brne	.+2      	; 0x34f4 <free+0xa>
    34f2:	81 c0       	rjmp	.+258    	; 0x35f6 <free+0x10c>
    34f4:	fc 01       	movw	r30, r24
    34f6:	32 97       	sbiw	r30, 0x02	; 2
    34f8:	13 82       	std	Z+3, r1	; 0x03
    34fa:	12 82       	std	Z+2, r1	; 0x02
    34fc:	a0 91 3d 05 	lds	r26, 0x053D	; 0x80053d <__flp>
    3500:	b0 91 3e 05 	lds	r27, 0x053E	; 0x80053e <__flp+0x1>
    3504:	10 97       	sbiw	r26, 0x00	; 0
    3506:	81 f4       	brne	.+32     	; 0x3528 <free+0x3e>
    3508:	20 81       	ld	r18, Z
    350a:	31 81       	ldd	r19, Z+1	; 0x01
    350c:	82 0f       	add	r24, r18
    350e:	93 1f       	adc	r25, r19
    3510:	20 91 3b 05 	lds	r18, 0x053B	; 0x80053b <__brkval>
    3514:	30 91 3c 05 	lds	r19, 0x053C	; 0x80053c <__brkval+0x1>
    3518:	28 17       	cp	r18, r24
    351a:	39 07       	cpc	r19, r25
    351c:	51 f5       	brne	.+84     	; 0x3572 <free+0x88>
    351e:	f0 93 3c 05 	sts	0x053C, r31	; 0x80053c <__brkval+0x1>
    3522:	e0 93 3b 05 	sts	0x053B, r30	; 0x80053b <__brkval>
    3526:	67 c0       	rjmp	.+206    	; 0x35f6 <free+0x10c>
    3528:	ed 01       	movw	r28, r26
    352a:	20 e0       	ldi	r18, 0x00	; 0
    352c:	30 e0       	ldi	r19, 0x00	; 0
    352e:	ce 17       	cp	r28, r30
    3530:	df 07       	cpc	r29, r31
    3532:	40 f4       	brcc	.+16     	; 0x3544 <free+0x5a>
    3534:	4a 81       	ldd	r20, Y+2	; 0x02
    3536:	5b 81       	ldd	r21, Y+3	; 0x03
    3538:	9e 01       	movw	r18, r28
    353a:	41 15       	cp	r20, r1
    353c:	51 05       	cpc	r21, r1
    353e:	f1 f0       	breq	.+60     	; 0x357c <free+0x92>
    3540:	ea 01       	movw	r28, r20
    3542:	f5 cf       	rjmp	.-22     	; 0x352e <free+0x44>
    3544:	d3 83       	std	Z+3, r29	; 0x03
    3546:	c2 83       	std	Z+2, r28	; 0x02
    3548:	40 81       	ld	r20, Z
    354a:	51 81       	ldd	r21, Z+1	; 0x01
    354c:	84 0f       	add	r24, r20
    354e:	95 1f       	adc	r25, r21
    3550:	c8 17       	cp	r28, r24
    3552:	d9 07       	cpc	r29, r25
    3554:	59 f4       	brne	.+22     	; 0x356c <free+0x82>
    3556:	88 81       	ld	r24, Y
    3558:	99 81       	ldd	r25, Y+1	; 0x01
    355a:	84 0f       	add	r24, r20
    355c:	95 1f       	adc	r25, r21
    355e:	02 96       	adiw	r24, 0x02	; 2
    3560:	91 83       	std	Z+1, r25	; 0x01
    3562:	80 83       	st	Z, r24
    3564:	8a 81       	ldd	r24, Y+2	; 0x02
    3566:	9b 81       	ldd	r25, Y+3	; 0x03
    3568:	93 83       	std	Z+3, r25	; 0x03
    356a:	82 83       	std	Z+2, r24	; 0x02
    356c:	21 15       	cp	r18, r1
    356e:	31 05       	cpc	r19, r1
    3570:	29 f4       	brne	.+10     	; 0x357c <free+0x92>
    3572:	f0 93 3e 05 	sts	0x053E, r31	; 0x80053e <__flp+0x1>
    3576:	e0 93 3d 05 	sts	0x053D, r30	; 0x80053d <__flp>
    357a:	3d c0       	rjmp	.+122    	; 0x35f6 <free+0x10c>
    357c:	e9 01       	movw	r28, r18
    357e:	fb 83       	std	Y+3, r31	; 0x03
    3580:	ea 83       	std	Y+2, r30	; 0x02
    3582:	49 91       	ld	r20, Y+
    3584:	59 91       	ld	r21, Y+
    3586:	c4 0f       	add	r28, r20
    3588:	d5 1f       	adc	r29, r21
    358a:	ec 17       	cp	r30, r28
    358c:	fd 07       	cpc	r31, r29
    358e:	61 f4       	brne	.+24     	; 0x35a8 <free+0xbe>
    3590:	80 81       	ld	r24, Z
    3592:	91 81       	ldd	r25, Z+1	; 0x01
    3594:	84 0f       	add	r24, r20
    3596:	95 1f       	adc	r25, r21
    3598:	02 96       	adiw	r24, 0x02	; 2
    359a:	e9 01       	movw	r28, r18
    359c:	99 83       	std	Y+1, r25	; 0x01
    359e:	88 83       	st	Y, r24
    35a0:	82 81       	ldd	r24, Z+2	; 0x02
    35a2:	93 81       	ldd	r25, Z+3	; 0x03
    35a4:	9b 83       	std	Y+3, r25	; 0x03
    35a6:	8a 83       	std	Y+2, r24	; 0x02
    35a8:	e0 e0       	ldi	r30, 0x00	; 0
    35aa:	f0 e0       	ldi	r31, 0x00	; 0
    35ac:	12 96       	adiw	r26, 0x02	; 2
    35ae:	8d 91       	ld	r24, X+
    35b0:	9c 91       	ld	r25, X
    35b2:	13 97       	sbiw	r26, 0x03	; 3
    35b4:	00 97       	sbiw	r24, 0x00	; 0
    35b6:	19 f0       	breq	.+6      	; 0x35be <free+0xd4>
    35b8:	fd 01       	movw	r30, r26
    35ba:	dc 01       	movw	r26, r24
    35bc:	f7 cf       	rjmp	.-18     	; 0x35ac <free+0xc2>
    35be:	8d 91       	ld	r24, X+
    35c0:	9c 91       	ld	r25, X
    35c2:	11 97       	sbiw	r26, 0x01	; 1
    35c4:	9d 01       	movw	r18, r26
    35c6:	2e 5f       	subi	r18, 0xFE	; 254
    35c8:	3f 4f       	sbci	r19, 0xFF	; 255
    35ca:	82 0f       	add	r24, r18
    35cc:	93 1f       	adc	r25, r19
    35ce:	20 91 3b 05 	lds	r18, 0x053B	; 0x80053b <__brkval>
    35d2:	30 91 3c 05 	lds	r19, 0x053C	; 0x80053c <__brkval+0x1>
    35d6:	28 17       	cp	r18, r24
    35d8:	39 07       	cpc	r19, r25
    35da:	69 f4       	brne	.+26     	; 0x35f6 <free+0x10c>
    35dc:	30 97       	sbiw	r30, 0x00	; 0
    35de:	29 f4       	brne	.+10     	; 0x35ea <free+0x100>
    35e0:	10 92 3e 05 	sts	0x053E, r1	; 0x80053e <__flp+0x1>
    35e4:	10 92 3d 05 	sts	0x053D, r1	; 0x80053d <__flp>
    35e8:	02 c0       	rjmp	.+4      	; 0x35ee <free+0x104>
    35ea:	13 82       	std	Z+3, r1	; 0x03
    35ec:	12 82       	std	Z+2, r1	; 0x02
    35ee:	b0 93 3c 05 	sts	0x053C, r27	; 0x80053c <__brkval+0x1>
    35f2:	a0 93 3b 05 	sts	0x053B, r26	; 0x80053b <__brkval>
    35f6:	df 91       	pop	r29
    35f8:	cf 91       	pop	r28
    35fa:	08 95       	ret

000035fc <_exit>:
    35fc:	f8 94       	cli

000035fe <__stop_program>:
    35fe:	ff cf       	rjmp	.-2      	; 0x35fe <__stop_program>
